
src/slam.elf:     file format elf32-avr

Sections:
Idx Name          Size      VMA       LMA       File off  Algn
  0 .text         0000211c  00000000  00000000  00000094  2**1
                  CONTENTS, ALLOC, LOAD, READONLY, CODE
  1 .data         00000010  00800060  0000211c  000021b0  2**0
                  CONTENTS, ALLOC, LOAD, DATA
  2 .bss          000000b9  00800070  00800070  000021c0  2**0
                  ALLOC
  3 .stab         00001938  00000000  00000000  000021c0  2**2
                  CONTENTS, READONLY, DEBUGGING
  4 .stabstr      000002b3  00000000  00000000  00003af8  2**0
                  CONTENTS, READONLY, DEBUGGING
  5 .comment      00000011  00000000  00000000  00003dab  2**0
                  CONTENTS, READONLY
  6 .debug_aranges 00000068  00000000  00000000  00003dbc  2**0
                  CONTENTS, READONLY, DEBUGGING
  7 .debug_info   00002229  00000000  00000000  00003e24  2**0
                  CONTENTS, READONLY, DEBUGGING
  8 .debug_abbrev 00000898  00000000  00000000  0000604d  2**0
                  CONTENTS, READONLY, DEBUGGING
  9 .debug_line   000007eb  00000000  00000000  000068e5  2**0
                  CONTENTS, READONLY, DEBUGGING
 10 .debug_frame  00000650  00000000  00000000  000070d0  2**2
                  CONTENTS, READONLY, DEBUGGING
 11 .debug_str    00000cb4  00000000  00000000  00007720  2**0
                  CONTENTS, READONLY, DEBUGGING
 12 .debug_loc    00000f84  00000000  00000000  000083d4  2**0
                  CONTENTS, READONLY, DEBUGGING
 13 .debug_ranges 00000030  00000000  00000000  00009358  2**0
                  CONTENTS, READONLY, DEBUGGING

Disassembly of section .text:

00000000 <__vectors>:
       0:	0c 94 9b 01 	jmp	0x336	; 0x336 <__ctors_end>
       4:	0c 94 c1 04 	jmp	0x982	; 0x982 <__vector_1>
       8:	0c 94 e1 04 	jmp	0x9c2	; 0x9c2 <__vector_2>
       c:	0c 94 ff 05 	jmp	0xbfe	; 0xbfe <__vector_3>
      10:	0c 94 9f 05 	jmp	0xb3e	; 0xb3e <__vector_4>
      14:	0c 94 b8 01 	jmp	0x370	; 0x370 <__bad_interrupt>
      18:	0c 94 b8 01 	jmp	0x370	; 0x370 <__bad_interrupt>
      1c:	0c 94 b8 01 	jmp	0x370	; 0x370 <__bad_interrupt>
      20:	0c 94 b8 01 	jmp	0x370	; 0x370 <__bad_interrupt>
      24:	0c 94 b8 01 	jmp	0x370	; 0x370 <__bad_interrupt>
      28:	0c 94 c0 07 	jmp	0xf80	; 0xf80 <__vector_10>
      2c:	0c 94 b8 01 	jmp	0x370	; 0x370 <__bad_interrupt>
      30:	0c 94 b8 01 	jmp	0x370	; 0x370 <__bad_interrupt>
      34:	0c 94 22 0e 	jmp	0x1c44	; 0x1c44 <__vector_13>
      38:	0c 94 b8 01 	jmp	0x370	; 0x370 <__bad_interrupt>
      3c:	0c 94 b8 01 	jmp	0x370	; 0x370 <__bad_interrupt>
      40:	0c 94 b8 01 	jmp	0x370	; 0x370 <__bad_interrupt>
      44:	0c 94 b8 01 	jmp	0x370	; 0x370 <__bad_interrupt>
      48:	0c 94 b8 01 	jmp	0x370	; 0x370 <__bad_interrupt>
      4c:	0c 94 b8 01 	jmp	0x370	; 0x370 <__bad_interrupt>
      50:	0c 94 b8 01 	jmp	0x370	; 0x370 <__bad_interrupt>
      54:	0c 02       	muls	r16, r28
      56:	28 02       	muls	r18, r24
      58:	50 02       	muls	r21, r16
      5a:	6e 02       	muls	r22, r30
      5c:	77 02       	muls	r23, r23
      5e:	90 02       	muls	r25, r16
      60:	b3 02       	muls	r27, r19
      62:	8a 04       	cpc	r8, r10
      64:	90 04       	cpc	r9, r0
      66:	96 04       	cpc	r9, r6
      68:	9c 04       	cpc	r9, r12
      6a:	a2 04       	cpc	r10, r2
      6c:	a8 04       	cpc	r10, r8
      6e:	ae 04       	cpc	r10, r14

00000070 <__trampolines_end>:
      70:	20 20       	and	r2, r0
      72:	20 20       	and	r2, r0
      74:	4a 61       	ori	r20, 0x1A	; 26
      76:	6e 20       	and	r6, r14
      78:	2d 20       	and	r2, r13
      7a:	46 65       	ori	r20, 0x56	; 86
      7c:	6c 69       	ori	r22, 0x9C	; 156
      7e:	78 20       	and	r7, r8
      80:	2d 20       	and	r2, r13
      82:	54 6f       	ori	r21, 0xF4	; 244
      84:	62 69       	ori	r22, 0x92	; 146
      86:	61 73       	andi	r22, 0x31	; 49
      88:	20 2d       	mov	r18, r0
      8a:	20 4a       	sbci	r18, 0xA0	; 160
      8c:	75 6c       	ori	r23, 0xC5	; 197
      8e:	69 61       	ori	r22, 0x19	; 25
      90:	6e 0a       	sbc	r6, r30
      92:	0a 00       	.word	0x000a	; ????

00000094 <__c.2152>:
      94:	53 69 6d 75 6c 74 61 6e 65 6f 75 73 20 6c 6f 63     Simultaneous loc
      a4:	61 6c 69 7a 61 74 69 6f 6e 20 61 6e 64 20 6d 61     alization and ma
      b4:	70 70 69 6e 67 0a 00                                pping..

000000bb <__c.2150>:
      bb:	20 20 20 20 50 65 72 76 61 73 69 76 65 20 43 6f         Pervasive Co
      cb:	6d 70 75 74 69 6e 67 20 2d 20 47 72 6f 75 70 20     mputing - Group 
      db:	38 0a 00                                            8..

000000de <__c.2148>:
      de:	5f 5f 5f 5f 5f 5f 5f 5f 7c 3d 3d 3d 7c 5f 5f 5f     ________|===|___
      ee:	5f 5f 5f 5f 5f 5f 5f 7c 3d 3d 3d 7c 5f 5f 5f 5f     _______|===|____
      fe:	5f 5f 5f 5f 0a 00                                   ____..

00000104 <__c.2146>:
     104:	20 20 20 20 20 20 20 20 7c 3d 3d 3d 7c 5c 5f 5f             |===|\__
     114:	5f 5f 5f 5f 5f 5f 2f 7c 3d 3d 3d 7c 0a 00           ______/|===|..

00000122 <__c.2144>:
     122:	20 20 20 20 20 20 20 20 2f 5f 5f 5f 5c 5f 5f 5f             /___\___
     132:	5f 5f 5f 5f 5f 5f 5f 2f 5f 5f 5f 5c 0a 00           _______/___\..

00000140 <__c.2142>:
     140:	20 20 20 20 20 20 20 20 20 5f 5f 5f 2f 5f 5f 5c              ___/__\
     150:	5f 4f 5f 2f 5f 5f 5f 5c 5f 5f 5f 0a 00              _O_/___\___..

0000015d <__c.2140>:
     15d:	0a 0a 20 20 20 20 20 20 20 20 20 20 20 20 20 5f     ..             _
     16d:	5f 2e 2d 2d 2d 2e 5f 5f 5f 0a 00                    _.---.___..

00000178 <__c.2227>:
     178:	54 68 65 20 52 6f 62 6f 74 20 6e 65 65 64 73 20     The Robot needs 
     188:	74 6f 20 62 65 20 72 65 73 65 74 74 65 64 20 6e     to be resetted n
     198:	6f 77 2e 0a 0a 00                                   ow....

0000019e <__c.2225>:
     19e:	59 6f 75 20 6e 65 65 64 20 74 6f 20 63 68 65 63     You need to chec
     1ae:	6b 20 4d 6f 74 6f 72 20 61 73 73 65 6d 62 6c 79     k Motor assembly
     1be:	20 28 6f 72 20 79 6f 75 72 20 73 6f 66 74 77 61      (or your softwa
     1ce:	72 65 29 2e 0a 0a 00                                re)....

000001d5 <__c.2223>:
     1d5:	0a 0a 28 73 2e 20 74 61 73 6b 5f 6d 6f 74 6f 72     ..(s. task_motor
     1e5:	43 6f 6e 74 72 6f 6c 28 29 20 66 75 6e 63 74 69     Control() functi
     1f5:	6f 6e 20 69 6e 20 52 50 36 4c 69 62 21 29 0a 00     on in RP6Lib!)..

00000205 <__c.2221>:
     205:	0a 0a 23 23 23 20 4d 4f 54 4f 52 20 4f 56 45 52     ..### MOTOR OVER
     215:	43 55 52 52 45 4e 54 20 23 23 23 0a 00              CURRENT ###..

00000222 <__c.2219>:
     222:	59 6f 75 20 6e 65 65 64 20 74 6f 20 63 68 65 63     You need to chec
     232:	6b 20 45 6e 63 6f 64 65 72 2f 4d 6f 74 6f 72 20     k Encoder/Motor 
     242:	61 73 73 65 6d 62 6c 79 20 28 6f 72 20 79 6f 75     assembly (or you
     252:	72 20 73 6f 66 74 77 61 72 65 29 2e 0a 0a 00        r software)....

00000261 <__c.2217>:
     261:	21 0a 0a 28 73 2e 20 74 61 73 6b 5f 6d 6f 74 6f     !..(s. task_moto
     271:	72 43 6f 6e 74 72 6f 6c 28 29 20 66 75 6e 63 74     rControl() funct
     281:	69 6f 6e 20 69 6e 20 52 50 36 4c 69 62 21 29 0a     ion in RP6Lib!).
	...

00000292 <__c.2215>:
     292:	52 49 47 48 54 00                                   RIGHT.

00000298 <__c.2213>:
     298:	4c 45 46 54 00                                      LEFT.

0000029d <__c.2211>:
     29d:	41 66 66 65 63 74 65 64 20 63 68 61 6e 6e 65 6c     Affected channel
     2ad:	3a 00                                               :.

000002af <__c.2209>:
     2af:	0a 23 23 23 20 45 4e 43 4f 44 45 52 20 28 4f 52     .### ENCODER (OR
     2bf:	20 4d 4f 54 4f 52 29 20 4d 41 4c 46 55 4e 43 54      MOTOR) MALFUNCT
     2cf:	49 4f 4e 21 20 23 23 23 0a 00                       ION! ###..

000002d9 <__c.2207>:
     2d9:	23 23 23 23 23 20 41 4c 4c 20 4f 50 45 52 41 54     ##### ALL OPERAT
     2e9:	49 4f 4e 53 20 53 54 4f 50 50 45 44 20 54 4f 20     IONS STOPPED TO 
     2f9:	50 52 45 56 45 4e 54 20 41 4e 59 20 44 41 4d 41     PREVENT ANY DAMA
     309:	47 45 21 20 23 23 23 23 23 0a 00                    GE! #####..

00000314 <__c.2205>:
     314:	0a 0a 23 23 23 23 23 20 45 4d 45 52 47 45 4e 43     ..##### EMERGENC
     324:	59 20 53 48 55 54 44 4f 57 4e 20 23 23 23 23 23     Y SHUTDOWN #####
     334:	0a 00                                               ..

00000336 <__ctors_end>:
     336:	11 24       	eor	r1, r1
     338:	1f be       	out	0x3f, r1	; 63
     33a:	cf e5       	ldi	r28, 0x5F	; 95
     33c:	d8 e0       	ldi	r29, 0x08	; 8
     33e:	de bf       	out	0x3e, r29	; 62
     340:	cd bf       	out	0x3d, r28	; 61

00000342 <__do_copy_data>:
     342:	10 e0       	ldi	r17, 0x00	; 0
     344:	a0 e6       	ldi	r26, 0x60	; 96
     346:	b0 e0       	ldi	r27, 0x00	; 0
     348:	ec e1       	ldi	r30, 0x1C	; 28
     34a:	f1 e2       	ldi	r31, 0x21	; 33
     34c:	02 c0       	rjmp	.+4      	; 0x352 <__do_copy_data+0x10>
     34e:	05 90       	lpm	r0, Z+
     350:	0d 92       	st	X+, r0
     352:	a0 37       	cpi	r26, 0x70	; 112
     354:	b1 07       	cpc	r27, r17
     356:	d9 f7       	brne	.-10     	; 0x34e <__do_copy_data+0xc>

00000358 <__do_clear_bss>:
     358:	11 e0       	ldi	r17, 0x01	; 1
     35a:	a0 e7       	ldi	r26, 0x70	; 112
     35c:	b0 e0       	ldi	r27, 0x00	; 0
     35e:	01 c0       	rjmp	.+2      	; 0x362 <.do_clear_bss_start>

00000360 <.do_clear_bss_loop>:
     360:	1d 92       	st	X+, r1

00000362 <.do_clear_bss_start>:
     362:	a9 32       	cpi	r26, 0x29	; 41
     364:	b1 07       	cpc	r27, r17
     366:	e1 f7       	brne	.-8      	; 0x360 <.do_clear_bss_loop>
     368:	0e 94 b1 0e 	call	0x1d62	; 0x1d62 <main>
     36c:	0c 94 8c 10 	jmp	0x2118	; 0x2118 <_exit>

00000370 <__bad_interrupt>:
     370:	0c 94 00 00 	jmp	0	; 0x0 <__vectors>

00000374 <acsStateChanged>:
 * The sensor checks are completely done in the Avoid behaviour
 * statemachine.
 */
void acsStateChanged(void)
{
	if(obstacle_left && obstacle_right)
     374:	90 91 df 00 	lds	r25, 0x00DF
     378:	80 91 e8 00 	lds	r24, 0x00E8
     37c:	99 23       	and	r25, r25
     37e:	31 f0       	breq	.+12     	; 0x38c <acsStateChanged+0x18>
     380:	88 23       	and	r24, r24
     382:	21 f0       	breq	.+8      	; 0x38c <acsStateChanged+0x18>
		statusLEDs.byte = 0b100100;
     384:	24 e2       	ldi	r18, 0x24	; 36
     386:	20 93 9f 00 	sts	0x009F, r18
     38a:	02 c0       	rjmp	.+4      	; 0x390 <acsStateChanged+0x1c>
	else
		statusLEDs.byte = 0b000000;
     38c:	10 92 9f 00 	sts	0x009F, r1
	statusLEDs.LED5 = obstacle_left;
     390:	20 91 9f 00 	lds	r18, 0x009F
     394:	90 fb       	bst	r25, 0
     396:	24 f9       	bld	r18, 4
     398:	20 93 9f 00 	sts	0x009F, r18
	statusLEDs.LED4 = (!obstacle_left);
     39c:	21 e0       	ldi	r18, 0x01	; 1
     39e:	91 11       	cpse	r25, r1
     3a0:	20 e0       	ldi	r18, 0x00	; 0
     3a2:	90 91 9f 00 	lds	r25, 0x009F
     3a6:	20 fb       	bst	r18, 0
     3a8:	93 f9       	bld	r25, 3
	statusLEDs.LED2 = obstacle_right;
     3aa:	80 fb       	bst	r24, 0
     3ac:	91 f9       	bld	r25, 1
     3ae:	90 93 9f 00 	sts	0x009F, r25
	statusLEDs.LED1 = (!obstacle_right);
     3b2:	91 e0       	ldi	r25, 0x01	; 1
     3b4:	81 11       	cpse	r24, r1
     3b6:	90 e0       	ldi	r25, 0x00	; 0
     3b8:	80 91 9f 00 	lds	r24, 0x009F
     3bc:	90 fb       	bst	r25, 0
     3be:	80 f9       	bld	r24, 0
     3c0:	80 93 9f 00 	sts	0x009F, r24
	updateStatusLEDs();
     3c4:	0c 94 e8 03 	jmp	0x7d0	; 0x7d0 <updateStatusLEDs>

000003c8 <bumpersStateChanged>:
/**
 * Bumpers Event handler
 */
void bumpersStateChanged(void)
{
	if(bumper_left && bumper_right) // Both Bumpers were hit
     3c8:	90 91 a0 00 	lds	r25, 0x00A0
     3cc:	80 91 fd 00 	lds	r24, 0x00FD
     3d0:	99 23       	and	r25, r25
     3d2:	51 f0       	breq	.+20     	; 0x3e8 <bumpersStateChanged+0x20>
     3d4:	88 23       	and	r24, r24
     3d6:	11 f0       	breq	.+4      	; 0x3dc <bumpersStateChanged+0x14>
	{
		escape.state = ESCAPE_FRONT;
     3d8:	81 e0       	ldi	r24, 0x01	; 1
     3da:	0d c0       	rjmp	.+26     	; 0x3f6 <bumpersStateChanged+0x2e>
	}
	else if(bumper_left)  			// Left Bumper was hit
	{
		if(escape.state != ESCAPE_FRONT_WAIT) 
     3dc:	80 91 7b 00 	lds	r24, 0x007B
     3e0:	82 30       	cpi	r24, 0x02	; 2
     3e2:	59 f0       	breq	.+22     	; 0x3fa <bumpersStateChanged+0x32>
			escape.state = ESCAPE_LEFT;
     3e4:	83 e0       	ldi	r24, 0x03	; 3
     3e6:	07 c0       	rjmp	.+14     	; 0x3f6 <bumpersStateChanged+0x2e>
	}
	else if(bumper_right) 			// Right Bumper was hit
     3e8:	88 23       	and	r24, r24
     3ea:	39 f0       	breq	.+14     	; 0x3fa <bumpersStateChanged+0x32>
	{
		if(escape.state != ESCAPE_FRONT_WAIT)
     3ec:	80 91 7b 00 	lds	r24, 0x007B
     3f0:	82 30       	cpi	r24, 0x02	; 2
     3f2:	19 f0       	breq	.+6      	; 0x3fa <bumpersStateChanged+0x32>
			escape.state = ESCAPE_RIGHT;
     3f4:	85 e0       	ldi	r24, 0x05	; 5
     3f6:	80 93 7b 00 	sts	0x007B, r24
     3fa:	08 95       	ret

000003fc <behaviour_cruise>:
 * a constant value for moving forwards - s. above!
 * Of course you can change this and add some random or timed movements 
 * in here...
 */
void behaviour_cruise(void)
{
     3fc:	08 95       	ret

000003fe <behaviour_escape>:
 */
void behaviour_escape(void)
{
	static uint8_t bump_count = 0;
	
	switch(escape.state)
     3fe:	80 91 7b 00 	lds	r24, 0x007B
     402:	90 e0       	ldi	r25, 0x00	; 0
     404:	fc 01       	movw	r30, r24
     406:	31 97       	sbiw	r30, 0x01	; 1
     408:	e7 30       	cpi	r30, 0x07	; 7
     40a:	f1 05       	cpc	r31, r1
     40c:	08 f0       	brcs	.+2      	; 0x410 <behaviour_escape+0x12>
     40e:	b1 c0       	rjmp	.+354    	; 0x572 <behaviour_escape+0x174>
     410:	e6 5d       	subi	r30, 0xD6	; 214
     412:	ff 4f       	sbci	r31, 0xFF	; 255
     414:	0c 94 55 10 	jmp	0x20aa	; 0x20aa <__tablejump2__>
	{
		case IDLE: 
		break;
		case ESCAPE_FRONT:
			escape.speed_left = ESCAPE_SPEED_BWD;
     418:	84 e6       	ldi	r24, 0x64	; 100
     41a:	80 93 76 00 	sts	0x0076, r24
			escape.dir = BWD;
     41e:	80 91 78 00 	lds	r24, 0x0078
     422:	8c 7f       	andi	r24, 0xFC	; 252
			escape.move = true;
     424:	81 60       	ori	r24, 0x01	; 1
     426:	84 60       	ori	r24, 0x04	; 4
     428:	80 93 78 00 	sts	0x0078, r24
			if(bump_count > 3)
     42c:	20 91 83 00 	lds	r18, 0x0083
     430:	24 30       	cpi	r18, 0x04	; 4
     432:	18 f0       	brcs	.+6      	; 0x43a <behaviour_escape+0x3c>
				escape.move_value = 220;
     434:	8c ed       	ldi	r24, 0xDC	; 220
     436:	90 e0       	ldi	r25, 0x00	; 0
     438:	02 c0       	rjmp	.+4      	; 0x43e <behaviour_escape+0x40>
			else
				escape.move_value = 160;
     43a:	80 ea       	ldi	r24, 0xA0	; 160
     43c:	90 e0       	ldi	r25, 0x00	; 0
     43e:	90 93 7a 00 	sts	0x007A, r25
     442:	80 93 79 00 	sts	0x0079, r24
			escape.state = ESCAPE_FRONT_WAIT;
     446:	82 e0       	ldi	r24, 0x02	; 2
     448:	80 93 7b 00 	sts	0x007B, r24
			bump_count+=2;
     44c:	2e 5f       	subi	r18, 0xFE	; 254
     44e:	43 c0       	rjmp	.+134    	; 0x4d6 <behaviour_escape+0xd8>
		break;
		case ESCAPE_FRONT_WAIT:			
			if(!escape.move) // Wait for movement to be completed
     450:	20 91 78 00 	lds	r18, 0x0078
     454:	22 fd       	sbrc	r18, 2
     456:	8d c0       	rjmp	.+282    	; 0x572 <behaviour_escape+0x174>
			{	
				escape.speed_left = ESCAPE_SPEED_ROTATE;
     458:	8c e3       	ldi	r24, 0x3C	; 60
     45a:	80 93 76 00 	sts	0x0076, r24
				if(bump_count > 3)
     45e:	80 91 83 00 	lds	r24, 0x0083
     462:	84 30       	cpi	r24, 0x04	; 4
     464:	60 f0       	brcs	.+24     	; 0x47e <behaviour_escape+0x80>
				{
					escape.move_value = 100;
     466:	84 e6       	ldi	r24, 0x64	; 100
     468:	90 e0       	ldi	r25, 0x00	; 0
     46a:	90 93 7a 00 	sts	0x007A, r25
     46e:	80 93 79 00 	sts	0x0079, r24
					escape.dir = RIGHT;
     472:	23 60       	ori	r18, 0x03	; 3
     474:	20 93 78 00 	sts	0x0078, r18
					bump_count = 0;
     478:	10 92 83 00 	sts	0x0083, r1
     47c:	0b c0       	rjmp	.+22     	; 0x494 <behaviour_escape+0x96>
				}
				else 
				{
					escape.dir = LEFT;
     47e:	82 2f       	mov	r24, r18
     480:	8c 7f       	andi	r24, 0xFC	; 252
     482:	82 60       	ori	r24, 0x02	; 2
     484:	80 93 78 00 	sts	0x0078, r24
					escape.move_value = 70;
     488:	86 e4       	ldi	r24, 0x46	; 70
     48a:	90 e0       	ldi	r25, 0x00	; 0
     48c:	90 93 7a 00 	sts	0x007A, r25
     490:	80 93 79 00 	sts	0x0079, r24
				}
				escape.rotate = true;
     494:	80 91 78 00 	lds	r24, 0x0078
     498:	88 60       	ori	r24, 0x08	; 8
     49a:	80 93 78 00 	sts	0x0078, r24
     49e:	5f c0       	rjmp	.+190    	; 0x55e <behaviour_escape+0x160>
				escape.state = ESCAPE_WAIT_END;
			}
		break;
		case ESCAPE_LEFT:
			escape.speed_left = ESCAPE_SPEED_BWD;
     4a0:	84 e6       	ldi	r24, 0x64	; 100
     4a2:	80 93 76 00 	sts	0x0076, r24
			escape.dir 	= BWD;
     4a6:	80 91 78 00 	lds	r24, 0x0078
     4aa:	8c 7f       	andi	r24, 0xFC	; 252
			escape.move = true;
     4ac:	81 60       	ori	r24, 0x01	; 1
     4ae:	84 60       	ori	r24, 0x04	; 4
     4b0:	80 93 78 00 	sts	0x0078, r24
			if(bump_count > 3)
     4b4:	20 91 83 00 	lds	r18, 0x0083
     4b8:	24 30       	cpi	r18, 0x04	; 4
     4ba:	18 f0       	brcs	.+6      	; 0x4c2 <behaviour_escape+0xc4>
				escape.move_value = 190;
     4bc:	8e eb       	ldi	r24, 0xBE	; 190
     4be:	90 e0       	ldi	r25, 0x00	; 0
     4c0:	02 c0       	rjmp	.+4      	; 0x4c6 <behaviour_escape+0xc8>
			else
				escape.move_value = 150;
     4c2:	86 e9       	ldi	r24, 0x96	; 150
     4c4:	90 e0       	ldi	r25, 0x00	; 0
     4c6:	90 93 7a 00 	sts	0x007A, r25
     4ca:	80 93 79 00 	sts	0x0079, r24
			escape.state = ESCAPE_LEFT_WAIT;
     4ce:	84 e0       	ldi	r24, 0x04	; 4
     4d0:	80 93 7b 00 	sts	0x007B, r24
			bump_count++;
     4d4:	2f 5f       	subi	r18, 0xFF	; 255
     4d6:	20 93 83 00 	sts	0x0083, r18
		break;
     4da:	08 95       	ret
		case ESCAPE_LEFT_WAIT:
			if(!escape.move) // Wait for movement to be completed
     4dc:	80 91 78 00 	lds	r24, 0x0078
     4e0:	82 fd       	sbrc	r24, 2
     4e2:	47 c0       	rjmp	.+142    	; 0x572 <behaviour_escape+0x174>
			{
				escape.speed_left = ESCAPE_SPEED_ROTATE;
     4e4:	9c e3       	ldi	r25, 0x3C	; 60
     4e6:	90 93 76 00 	sts	0x0076, r25
				escape.dir = RIGHT;
				escape.rotate = true;
     4ea:	83 60       	ori	r24, 0x03	; 3
     4ec:	22 c0       	rjmp	.+68     	; 0x532 <behaviour_escape+0x134>
					escape.move_value = 80;
				escape.state = ESCAPE_WAIT_END;
			}
		break;
		case ESCAPE_RIGHT:	
			escape.speed_left = ESCAPE_SPEED_BWD;
     4ee:	84 e6       	ldi	r24, 0x64	; 100
     4f0:	80 93 76 00 	sts	0x0076, r24
			escape.dir 	= BWD;
     4f4:	80 91 78 00 	lds	r24, 0x0078
     4f8:	8c 7f       	andi	r24, 0xFC	; 252
			escape.move = true;
     4fa:	81 60       	ori	r24, 0x01	; 1
     4fc:	84 60       	ori	r24, 0x04	; 4
     4fe:	80 93 78 00 	sts	0x0078, r24
			if(bump_count > 3)
     502:	20 91 83 00 	lds	r18, 0x0083
     506:	24 30       	cpi	r18, 0x04	; 4
     508:	18 f0       	brcs	.+6      	; 0x510 <behaviour_escape+0x112>
				escape.move_value = 190;
     50a:	8e eb       	ldi	r24, 0xBE	; 190
     50c:	90 e0       	ldi	r25, 0x00	; 0
     50e:	02 c0       	rjmp	.+4      	; 0x514 <behaviour_escape+0x116>
			else
				escape.move_value = 150;
     510:	86 e9       	ldi	r24, 0x96	; 150
     512:	90 e0       	ldi	r25, 0x00	; 0
     514:	90 93 7a 00 	sts	0x007A, r25
     518:	80 93 79 00 	sts	0x0079, r24
			escape.state = ESCAPE_RIGHT_WAIT;
     51c:	86 e0       	ldi	r24, 0x06	; 6
     51e:	d8 cf       	rjmp	.-80     	; 0x4d0 <behaviour_escape+0xd2>
			bump_count++;
		break;
		case ESCAPE_RIGHT_WAIT:
			if(!escape.move) // Wait for movement to be completed
     520:	80 91 78 00 	lds	r24, 0x0078
     524:	82 fd       	sbrc	r24, 2
     526:	25 c0       	rjmp	.+74     	; 0x572 <behaviour_escape+0x174>
			{ 
				escape.speed_left = ESCAPE_SPEED_ROTATE;		
     528:	9c e3       	ldi	r25, 0x3C	; 60
     52a:	90 93 76 00 	sts	0x0076, r25
				escape.dir = LEFT;
     52e:	8c 7f       	andi	r24, 0xFC	; 252
				escape.rotate = true;
     530:	82 60       	ori	r24, 0x02	; 2
     532:	88 60       	ori	r24, 0x08	; 8
     534:	80 93 78 00 	sts	0x0078, r24
				if(bump_count > 3)
     538:	80 91 83 00 	lds	r24, 0x0083
     53c:	84 30       	cpi	r24, 0x04	; 4
     53e:	48 f0       	brcs	.+18     	; 0x552 <behaviour_escape+0x154>
				{
					escape.move_value = 110;
     540:	8e e6       	ldi	r24, 0x6E	; 110
     542:	90 e0       	ldi	r25, 0x00	; 0
     544:	90 93 7a 00 	sts	0x007A, r25
     548:	80 93 79 00 	sts	0x0079, r24
					bump_count = 0;
     54c:	10 92 83 00 	sts	0x0083, r1
     550:	06 c0       	rjmp	.+12     	; 0x55e <behaviour_escape+0x160>
				}
				else
					escape.move_value = 80;
     552:	80 e5       	ldi	r24, 0x50	; 80
     554:	90 e0       	ldi	r25, 0x00	; 0
     556:	90 93 7a 00 	sts	0x007A, r25
     55a:	80 93 79 00 	sts	0x0079, r24
				escape.state = ESCAPE_WAIT_END;
     55e:	87 e0       	ldi	r24, 0x07	; 7
     560:	80 93 7b 00 	sts	0x007B, r24
     564:	08 95       	ret
			}
		break;
		case ESCAPE_WAIT_END:
			if(!(escape.move || escape.rotate)) // Wait for movement/rotation to be completed
     566:	80 91 78 00 	lds	r24, 0x0078
     56a:	8c 70       	andi	r24, 0x0C	; 12
     56c:	11 f4       	brne	.+4      	; 0x572 <behaviour_escape+0x174>
				escape.state = IDLE;
     56e:	10 92 7b 00 	sts	0x007B, r1
     572:	08 95       	ret

00000574 <behaviour_avoid>:
 */
void behaviour_avoid(void)
{
	static uint8_t last_obstacle = LEFT;
	static uint8_t obstacle_counter = 0;
	switch(avoid.state)
     574:	80 91 75 00 	lds	r24, 0x0075
     578:	82 30       	cpi	r24, 0x02	; 2
     57a:	09 f4       	brne	.+2      	; 0x57e <behaviour_avoid+0xa>
     57c:	67 c0       	rjmp	.+206    	; 0x64c <behaviour_avoid+0xd8>
     57e:	30 f4       	brcc	.+12     	; 0x58c <behaviour_avoid+0x18>
     580:	88 23       	and	r24, r24
     582:	51 f0       	breq	.+20     	; 0x598 <behaviour_avoid+0x24>
     584:	81 30       	cpi	r24, 0x01	; 1
     586:	09 f4       	brne	.+2      	; 0x58a <behaviour_avoid+0x16>
     588:	48 c0       	rjmp	.+144    	; 0x61a <behaviour_avoid+0xa6>
     58a:	08 95       	ret
     58c:	83 30       	cpi	r24, 0x03	; 3
     58e:	b9 f0       	breq	.+46     	; 0x5be <behaviour_avoid+0x4a>
     590:	85 30       	cpi	r24, 0x05	; 5
     592:	09 f4       	brne	.+2      	; 0x596 <behaviour_avoid+0x22>
     594:	8a c0       	rjmp	.+276    	; 0x6aa <behaviour_avoid+0x136>
     596:	08 95       	ret
	{
		case IDLE: 
		// This is different to the escape Behaviour where
		// we used the Event Handler to detect sensor changes...
		// Here we do this within the states!
			if(obstacle_right && obstacle_left) // left AND right sensor have detected something...
     598:	90 91 e8 00 	lds	r25, 0x00E8
     59c:	80 91 df 00 	lds	r24, 0x00DF
     5a0:	99 23       	and	r25, r25
     5a2:	21 f0       	breq	.+8      	; 0x5ac <behaviour_avoid+0x38>
     5a4:	88 23       	and	r24, r24
     5a6:	49 f0       	breq	.+18     	; 0x5ba <behaviour_avoid+0x46>
				avoid.state = AVOID_OBSTACLE_MIDDLE;
     5a8:	83 e0       	ldi	r24, 0x03	; 3
     5aa:	04 c0       	rjmp	.+8      	; 0x5b4 <behaviour_avoid+0x40>
			else if(obstacle_left)  // Left "sensor" has detected something
     5ac:	88 23       	and	r24, r24
     5ae:	09 f4       	brne	.+2      	; 0x5b2 <behaviour_avoid+0x3e>
     5b0:	9c c0       	rjmp	.+312    	; 0x6ea <behaviour_avoid+0x176>
				avoid.state = AVOID_OBSTACLE_LEFT;
     5b2:	82 e0       	ldi	r24, 0x02	; 2
     5b4:	80 93 75 00 	sts	0x0075, r24
     5b8:	08 95       	ret
			else if(obstacle_right) // Right "sensor" has detected something
				avoid.state = AVOID_OBSTACLE_RIGHT;
     5ba:	81 e0       	ldi	r24, 0x01	; 1
     5bc:	fb cf       	rjmp	.-10     	; 0x5b4 <behaviour_avoid+0x40>
		break;
		case AVOID_OBSTACLE_MIDDLE:
			avoid.dir = last_obstacle;
     5be:	90 91 60 00 	lds	r25, 0x0060
     5c2:	93 70       	andi	r25, 0x03	; 3
     5c4:	80 91 72 00 	lds	r24, 0x0072
     5c8:	8c 7f       	andi	r24, 0xFC	; 252
     5ca:	89 2b       	or	r24, r25
     5cc:	80 93 72 00 	sts	0x0072, r24
			avoid.speed_left = AVOID_SPEED_ROTATE;
     5d0:	8c e3       	ldi	r24, 0x3C	; 60
     5d2:	80 93 70 00 	sts	0x0070, r24
			avoid.speed_right = AVOID_SPEED_ROTATE;
     5d6:	80 93 71 00 	sts	0x0071, r24
			if(!(obstacle_left || obstacle_right))
     5da:	80 91 df 00 	lds	r24, 0x00DF
     5de:	81 11       	cpse	r24, r1
     5e0:	84 c0       	rjmp	.+264    	; 0x6ea <behaviour_avoid+0x176>
     5e2:	80 91 e8 00 	lds	r24, 0x00E8
     5e6:	81 11       	cpse	r24, r1
     5e8:	80 c0       	rjmp	.+256    	; 0x6ea <behaviour_avoid+0x176>
			{
				if(obstacle_counter > 3)
     5ea:	80 91 82 00 	lds	r24, 0x0082
     5ee:	84 30       	cpi	r24, 0x04	; 4
     5f0:	38 f0       	brcs	.+14     	; 0x600 <behaviour_avoid+0x8c>
				{
					obstacle_counter = 0;
     5f2:	10 92 82 00 	sts	0x0082, r1
					setStopwatch4(0);
     5f6:	10 92 d5 00 	sts	0x00D5, r1
     5fa:	10 92 d4 00 	sts	0x00D4, r1
     5fe:	06 c0       	rjmp	.+12     	; 0x60c <behaviour_avoid+0x98>
				}
				else
					setStopwatch4(400);
     600:	80 e9       	ldi	r24, 0x90	; 144
     602:	91 e0       	ldi	r25, 0x01	; 1
     604:	90 93 d5 00 	sts	0x00D5, r25
     608:	80 93 d4 00 	sts	0x00D4, r24
				startStopwatch4();
     60c:	80 91 cd 00 	lds	r24, 0x00CD
     610:	88 60       	ori	r24, 0x08	; 8
     612:	80 93 cd 00 	sts	0x00CD, r24
				avoid.state = AVOID_END;
     616:	85 e0       	ldi	r24, 0x05	; 5
     618:	cd cf       	rjmp	.-102    	; 0x5b4 <behaviour_avoid+0x40>
			}
		break;
		case AVOID_OBSTACLE_RIGHT:
			avoid.dir = FWD;
     61a:	80 91 72 00 	lds	r24, 0x0072
     61e:	8c 7f       	andi	r24, 0xFC	; 252
     620:	80 93 72 00 	sts	0x0072, r24
			avoid.speed_left = AVOID_SPEED_L_ARC_LEFT;
     624:	8e e1       	ldi	r24, 0x1E	; 30
     626:	80 93 70 00 	sts	0x0070, r24
			avoid.speed_right = AVOID_SPEED_L_ARC_RIGHT;
     62a:	84 e6       	ldi	r24, 0x64	; 100
     62c:	80 93 71 00 	sts	0x0071, r24
			if(obstacle_right && obstacle_left)
     630:	80 91 e8 00 	lds	r24, 0x00E8
     634:	88 23       	and	r24, r24
     636:	09 f4       	brne	.+2      	; 0x63a <behaviour_avoid+0xc6>
     638:	4b c0       	rjmp	.+150    	; 0x6d0 <behaviour_avoid+0x15c>
     63a:	80 91 df 00 	lds	r24, 0x00DF
     63e:	88 23       	and	r24, r24
     640:	19 f0       	breq	.+6      	; 0x648 <behaviour_avoid+0xd4>
				avoid.state = AVOID_OBSTACLE_MIDDLE;
     642:	83 e0       	ldi	r24, 0x03	; 3
     644:	80 93 75 00 	sts	0x0075, r24
			{
				setStopwatch4(500);
				startStopwatch4();
				avoid.state = AVOID_END;
			}
			last_obstacle = RIGHT;
     648:	83 e0       	ldi	r24, 0x03	; 3
     64a:	27 c0       	rjmp	.+78     	; 0x69a <behaviour_avoid+0x126>
			obstacle_counter++;
		break;
		case AVOID_OBSTACLE_LEFT:
			avoid.dir = FWD;
     64c:	80 91 72 00 	lds	r24, 0x0072
     650:	8c 7f       	andi	r24, 0xFC	; 252
     652:	80 93 72 00 	sts	0x0072, r24
			avoid.speed_left = AVOID_SPEED_R_ARC_LEFT;
     656:	84 e6       	ldi	r24, 0x64	; 100
     658:	80 93 70 00 	sts	0x0070, r24
			avoid.speed_right = AVOID_SPEED_R_ARC_RIGHT;
     65c:	8e e1       	ldi	r24, 0x1E	; 30
     65e:	80 93 71 00 	sts	0x0071, r24
			if(obstacle_right && obstacle_left)
     662:	90 91 e8 00 	lds	r25, 0x00E8
     666:	80 91 df 00 	lds	r24, 0x00DF
     66a:	99 23       	and	r25, r25
     66c:	29 f0       	breq	.+10     	; 0x678 <behaviour_avoid+0x104>
     66e:	88 23       	and	r24, r24
     670:	29 f0       	breq	.+10     	; 0x67c <behaviour_avoid+0x108>
				avoid.state = AVOID_OBSTACLE_MIDDLE;
     672:	93 e0       	ldi	r25, 0x03	; 3
     674:	90 93 75 00 	sts	0x0075, r25
			if(!obstacle_left)
     678:	81 11       	cpse	r24, r1
     67a:	0e c0       	rjmp	.+28     	; 0x698 <behaviour_avoid+0x124>
			{
				setStopwatch4(500); 
     67c:	84 ef       	ldi	r24, 0xF4	; 244
     67e:	91 e0       	ldi	r25, 0x01	; 1
     680:	90 93 d5 00 	sts	0x00D5, r25
     684:	80 93 d4 00 	sts	0x00D4, r24
				startStopwatch4();
     688:	80 91 cd 00 	lds	r24, 0x00CD
     68c:	88 60       	ori	r24, 0x08	; 8
     68e:	80 93 cd 00 	sts	0x00CD, r24
				avoid.state = AVOID_END;
     692:	85 e0       	ldi	r24, 0x05	; 5
     694:	80 93 75 00 	sts	0x0075, r24
			}
			last_obstacle = LEFT;
     698:	82 e0       	ldi	r24, 0x02	; 2
     69a:	80 93 60 00 	sts	0x0060, r24
			obstacle_counter++;
     69e:	80 91 82 00 	lds	r24, 0x0082
     6a2:	8f 5f       	subi	r24, 0xFF	; 255
     6a4:	80 93 82 00 	sts	0x0082, r24
		break;
     6a8:	08 95       	ret
		case AVOID_END:
			if(getStopwatch4() > 1000) // We used timing based movement here!
     6aa:	80 91 d4 00 	lds	r24, 0x00D4
     6ae:	90 91 d5 00 	lds	r25, 0x00D5
     6b2:	89 3e       	cpi	r24, 0xE9	; 233
     6b4:	93 40       	sbci	r25, 0x03	; 3
     6b6:	c8 f0       	brcs	.+50     	; 0x6ea <behaviour_avoid+0x176>
			{
				stopStopwatch4();
     6b8:	80 91 cd 00 	lds	r24, 0x00CD
     6bc:	87 7f       	andi	r24, 0xF7	; 247
     6be:	80 93 cd 00 	sts	0x00CD, r24
				setStopwatch4(0);
     6c2:	10 92 d5 00 	sts	0x00D5, r1
     6c6:	10 92 d4 00 	sts	0x00D4, r1
				avoid.state = IDLE;
     6ca:	10 92 75 00 	sts	0x0075, r1
     6ce:	08 95       	ret
			avoid.speed_right = AVOID_SPEED_L_ARC_RIGHT;
			if(obstacle_right && obstacle_left)
				avoid.state = AVOID_OBSTACLE_MIDDLE;
			if(!obstacle_right)
			{
				setStopwatch4(500);
     6d0:	84 ef       	ldi	r24, 0xF4	; 244
     6d2:	91 e0       	ldi	r25, 0x01	; 1
     6d4:	90 93 d5 00 	sts	0x00D5, r25
     6d8:	80 93 d4 00 	sts	0x00D4, r24
				startStopwatch4();
     6dc:	80 91 cd 00 	lds	r24, 0x00CD
     6e0:	88 60       	ori	r24, 0x08	; 8
     6e2:	80 93 cd 00 	sts	0x00CD, r24
				avoid.state = AVOID_END;
     6e6:	85 e0       	ldi	r24, 0x05	; 5
     6e8:	ad cf       	rjmp	.-166    	; 0x644 <behaviour_avoid+0xd0>
     6ea:	08 95       	ret

000006ec <moveCommand>:
 * This function processes the movement commands that the behaviours generate. 
 * Depending on the values in the behaviour_command_t struct, it sets motor
 * speed, moves a given distance or rotates.
 */
void moveCommand(behaviour_command_t * cmd)
{
     6ec:	1f 93       	push	r17
     6ee:	cf 93       	push	r28
     6f0:	df 93       	push	r29
     6f2:	ec 01       	movw	r28, r24
	if(cmd->move_value > 0)  // move or rotate?
     6f4:	4b 81       	ldd	r20, Y+3	; 0x03
     6f6:	5c 81       	ldd	r21, Y+4	; 0x04
     6f8:	1a 81       	ldd	r17, Y+2	; 0x02
     6fa:	41 15       	cp	r20, r1
     6fc:	51 05       	cpc	r21, r1
     6fe:	11 f1       	breq	.+68     	; 0x744 <moveCommand+0x58>
	{
		if(cmd->rotate)
     700:	13 ff       	sbrs	r17, 3
     702:	07 c0       	rjmp	.+14     	; 0x712 <moveCommand+0x26>
			rotate(cmd->speed_left, cmd->dir, cmd->move_value, false); 
     704:	61 2f       	mov	r22, r17
     706:	63 70       	andi	r22, 0x03	; 3
     708:	20 e0       	ldi	r18, 0x00	; 0
     70a:	88 81       	ld	r24, Y
     70c:	0e 94 cf 0c 	call	0x199e	; 0x199e <rotate>
     710:	16 c0       	rjmp	.+44     	; 0x73e <moveCommand+0x52>
		else if(cmd->move)
     712:	12 ff       	sbrs	r17, 2
     714:	14 c0       	rjmp	.+40     	; 0x73e <moveCommand+0x52>
			move(cmd->speed_left, cmd->dir, DIST_MM(cmd->move_value), false); 
     716:	ba 01       	movw	r22, r20
     718:	80 e0       	ldi	r24, 0x00	; 0
     71a:	90 e0       	ldi	r25, 0x00	; 0
     71c:	0e 94 82 0f 	call	0x1f04	; 0x1f04 <__floatunsisf>
     720:	2f e8       	ldi	r18, 0x8F	; 143
     722:	32 ec       	ldi	r19, 0xC2	; 194
     724:	45 e7       	ldi	r20, 0x75	; 117
     726:	5e e3       	ldi	r21, 0x3E	; 62
     728:	0e 94 ee 0e 	call	0x1ddc	; 0x1ddc <__divsf3>
     72c:	0e 94 56 0f 	call	0x1eac	; 0x1eac <__fixunssfsi>
     730:	13 70       	andi	r17, 0x03	; 3
     732:	20 e0       	ldi	r18, 0x00	; 0
     734:	ab 01       	movw	r20, r22
     736:	61 2f       	mov	r22, r17
     738:	88 81       	ld	r24, Y
     73a:	0e 94 35 0c 	call	0x186a	; 0x186a <move>
		cmd->move_value = 0; // clear move value - the move commands are only
     73e:	1c 82       	std	Y+4, r1	; 0x04
     740:	1b 82       	std	Y+3, r1	; 0x03
     742:	16 c0       	rjmp	.+44     	; 0x770 <moveCommand+0x84>
		                     // given once and then runs in background.
	}
	else if(!(cmd->move || cmd->rotate)) // just move at speed? 
     744:	81 2f       	mov	r24, r17
     746:	8c 70       	andi	r24, 0x0C	; 12
     748:	59 f4       	brne	.+22     	; 0x760 <moveCommand+0x74>
	{
		changeDirection(cmd->dir);
     74a:	81 2f       	mov	r24, r17
     74c:	83 70       	andi	r24, 0x03	; 3
     74e:	0e 94 17 05 	call	0xa2e	; 0xa2e <changeDirection>
		moveAtSpeed(cmd->speed_left,cmd->speed_right);
     752:	69 81       	ldd	r22, Y+1	; 0x01
     754:	88 81       	ld	r24, Y
	else if(isMovementComplete()) // movement complete? --> clear flags!
	{
		cmd->rotate = false;
		cmd->move = false;
	}
}
     756:	df 91       	pop	r29
     758:	cf 91       	pop	r28
     75a:	1f 91       	pop	r17
		                     // given once and then runs in background.
	}
	else if(!(cmd->move || cmd->rotate)) // just move at speed? 
	{
		changeDirection(cmd->dir);
		moveAtSpeed(cmd->speed_left,cmd->speed_right);
     75c:	0c 94 06 05 	jmp	0xa0c	; 0xa0c <moveAtSpeed>
	}
	else if(isMovementComplete()) // movement complete? --> clear flags!
     760:	0e 94 3b 05 	call	0xa76	; 0xa76 <isMovementComplete>
     764:	88 23       	and	r24, r24
     766:	21 f0       	breq	.+8      	; 0x770 <moveCommand+0x84>
	{
		cmd->rotate = false;
     768:	8a 81       	ldd	r24, Y+2	; 0x02
		cmd->move = false;
     76a:	87 7f       	andi	r24, 0xF7	; 247
     76c:	8b 7f       	andi	r24, 0xFB	; 251
     76e:	8a 83       	std	Y+2, r24	; 0x02
	}
}
     770:	df 91       	pop	r29
     772:	cf 91       	pop	r28
     774:	1f 91       	pop	r17
     776:	08 95       	ret

00000778 <behaviourController>:
 */
void behaviourController(void)
{
    // Call all the behaviour tasks:
	behaviour_cruise();
	behaviour_avoid();
     778:	0e 94 ba 02 	call	0x574	; 0x574 <behaviour_avoid>
	behaviour_escape();
     77c:	0e 94 ff 01 	call	0x3fe	; 0x3fe <behaviour_escape>

    // Execute the commands depending on priority levels:
	if(escape.state != IDLE) // Highest priority - 3
     780:	80 91 7b 00 	lds	r24, 0x007B
     784:	88 23       	and	r24, r24
     786:	19 f0       	breq	.+6      	; 0x78e <behaviourController+0x16>
		moveCommand(&escape);
     788:	86 e7       	ldi	r24, 0x76	; 118
     78a:	90 e0       	ldi	r25, 0x00	; 0
     78c:	10 c0       	rjmp	.+32     	; 0x7ae <behaviourController+0x36>
	else if(avoid.state != IDLE) // Priority - 2
     78e:	80 91 75 00 	lds	r24, 0x0075
     792:	88 23       	and	r24, r24
     794:	19 f0       	breq	.+6      	; 0x79c <behaviourController+0x24>
		moveCommand(&avoid);
     796:	80 e7       	ldi	r24, 0x70	; 112
     798:	90 e0       	ldi	r25, 0x00	; 0
     79a:	09 c0       	rjmp	.+18     	; 0x7ae <behaviourController+0x36>
	else if(cruise.state != IDLE) // Priority - 1
     79c:	80 91 66 00 	lds	r24, 0x0066
     7a0:	88 23       	and	r24, r24
     7a2:	19 f0       	breq	.+6      	; 0x7aa <behaviourController+0x32>
		moveCommand(&cruise); 
     7a4:	81 e6       	ldi	r24, 0x61	; 97
     7a6:	90 e0       	ldi	r25, 0x00	; 0
     7a8:	02 c0       	rjmp	.+4      	; 0x7ae <behaviourController+0x36>
	else                     // Lowest priority - 0
		moveCommand(&STOP);  // Default command - do nothing! 
     7aa:	8c e7       	ldi	r24, 0x7C	; 124
     7ac:	90 e0       	ldi	r25, 0x00	; 0
     7ae:	0c 94 76 03 	jmp	0x6ec	; 0x6ec <moveCommand>

000007b2 <BUMPERS_stateChanged_DUMMY>:
}

// -------------------------------
// Bumpers State changed handler:

void BUMPERS_stateChanged_DUMMY(void){}
     7b2:	08 95       	ret

000007b4 <MOTIONCONTROL_stateChanged_DUMMY>:


// -------------------------------
// MotionControl state changed handler:

void MOTIONCONTROL_stateChanged_DUMMY(void){}
     7b4:	08 95       	ret

000007b6 <IRCOMM_RC5dataReady_DUMMY>:
}

// -------------------------------
// RC5 Data reception Handler:

void IRCOMM_RC5dataReady_DUMMY(RC5data_t rc5data){}
     7b6:	08 95       	ret

000007b8 <ACS_stateChanged_DUMMY>:


// -------------------------------
// ACS State changed handler:

void ACS_stateChanged_DUMMY(void){}
     7b8:	08 95       	ret

000007ba <enablePowerOnWarning>:
	 * to turn of the Robot if your program does not use
	 * any LEDs for a long time! 
	 */
	void enablePowerOnWarning(void) 
	{ 
		if(leds_on > 3)
     7ba:	80 91 b4 00 	lds	r24, 0x00B4
     7be:	84 30       	cpi	r24, 0x04	; 4
     7c0:	10 f0       	brcs	.+4      	; 0x7c6 <enablePowerOnWarning+0xc>
			leds_on = 0; 
     7c2:	10 92 b4 00 	sts	0x00B4, r1
     7c6:	08 95       	ret

000007c8 <disablePowerOnWarning>:
	 * This disables the power on warning. 
	 * also see RP6Config.h for #define POWER_ON_WARNING
	 */
	void disablePowerOnWarning(void) 
	{ 
		leds_on = 4; 
     7c8:	84 e0       	ldi	r24, 0x04	; 4
     7ca:	80 93 b4 00 	sts	0x00B4, r24
     7ce:	08 95       	ret

000007d0 <updateStatusLEDs>:
 *			updateStatusLEDs();
 *			// This sets LED2 and does not affect any other LED!
 */
void updateStatusLEDs(void)
{
	DDRB &= ~0x83;
     7d0:	87 b3       	in	r24, 0x17	; 23
     7d2:	8c 77       	andi	r24, 0x7C	; 124
     7d4:	87 bb       	out	0x17, r24	; 23
	PORTB &= ~0x83;
     7d6:	88 b3       	in	r24, 0x18	; 24
     7d8:	8c 77       	andi	r24, 0x7C	; 124
     7da:	88 bb       	out	0x18, r24	; 24
	if(statusLEDs.LED4){ DDRB |= SL4; PORTB |= SL4; }
     7dc:	80 91 9f 00 	lds	r24, 0x009F
     7e0:	83 ff       	sbrs	r24, 3
     7e2:	02 c0       	rjmp	.+4      	; 0x7e8 <updateStatusLEDs+0x18>
     7e4:	bf 9a       	sbi	0x17, 7	; 23
     7e6:	c7 9a       	sbi	0x18, 7	; 24
	if(statusLEDs.LED5){ DDRB |= SL5; PORTB |= SL5; }
     7e8:	80 91 9f 00 	lds	r24, 0x009F
     7ec:	84 ff       	sbrs	r24, 4
     7ee:	02 c0       	rjmp	.+4      	; 0x7f4 <updateStatusLEDs+0x24>
     7f0:	b9 9a       	sbi	0x17, 1	; 23
     7f2:	c1 9a       	sbi	0x18, 1	; 24
	if(statusLEDs.LED6){ DDRB |= SL6; PORTB |= SL6; }
     7f4:	80 91 9f 00 	lds	r24, 0x009F
     7f8:	85 ff       	sbrs	r24, 5
     7fa:	02 c0       	rjmp	.+4      	; 0x800 <updateStatusLEDs+0x30>
     7fc:	b8 9a       	sbi	0x17, 0	; 23
     7fe:	c0 9a       	sbi	0x18, 0	; 24
	DDRC &= ~0x70;
     800:	84 b3       	in	r24, 0x14	; 20
     802:	8f 78       	andi	r24, 0x8F	; 143
     804:	84 bb       	out	0x14, r24	; 20
	PORTC &= ~0x70;
     806:	85 b3       	in	r24, 0x15	; 21
     808:	8f 78       	andi	r24, 0x8F	; 143
     80a:	85 bb       	out	0x15, r24	; 21
	DDRC |= ((statusLEDs.byte << 4) & 0x70);
     80c:	24 b3       	in	r18, 0x14	; 20
     80e:	80 91 9f 00 	lds	r24, 0x009F
     812:	30 e1       	ldi	r19, 0x10	; 16
     814:	83 9f       	mul	r24, r19
     816:	c0 01       	movw	r24, r0
     818:	11 24       	eor	r1, r1
     81a:	80 77       	andi	r24, 0x70	; 112
     81c:	82 2b       	or	r24, r18
     81e:	84 bb       	out	0x14, r24	; 20
	PORTC |= ((statusLEDs.byte << 4) & 0x70);
     820:	25 b3       	in	r18, 0x15	; 21
     822:	80 91 9f 00 	lds	r24, 0x009F
     826:	30 e1       	ldi	r19, 0x10	; 16
     828:	83 9f       	mul	r24, r19
     82a:	c0 01       	movw	r24, r0
     82c:	11 24       	eor	r1, r1
     82e:	80 77       	andi	r24, 0x70	; 112
     830:	82 2b       	or	r24, r18
     832:	85 bb       	out	0x15, r24	; 21
	#ifdef POWER_ON_WARNING
		leds_on = (leds_on ? leds_on : (statusLEDs.byte && 1));
     834:	80 91 b4 00 	lds	r24, 0x00B4
     838:	81 11       	cpse	r24, r1
     83a:	06 c0       	rjmp	.+12     	; 0x848 <updateStatusLEDs+0x78>
     83c:	81 e0       	ldi	r24, 0x01	; 1
     83e:	90 91 9f 00 	lds	r25, 0x009F
     842:	91 11       	cpse	r25, r1
     844:	01 c0       	rjmp	.+2      	; 0x848 <updateStatusLEDs+0x78>
     846:	80 e0       	ldi	r24, 0x00	; 0
     848:	80 93 b4 00 	sts	0x00B4, r24
     84c:	08 95       	ret

0000084e <setLEDs>:
 *			// this clears all LEDs and sets the LEDs STATUS1,
 *			// STATUS6 and STATUS4!
 */
void setLEDs(uint8_t leds)
{
	statusLEDs.byte = leds;
     84e:	80 93 9f 00 	sts	0x009F, r24
	updateStatusLEDs();
     852:	0c 94 e8 03 	jmp	0x7d0	; 0x7d0 <updateStatusLEDs>

00000856 <getBumperLeft>:
 *		if(getBumperLeft())
 *			// do something
 */
uint8_t getBumperLeft(void)
{ 
	PORTB &= ~SL6;
     856:	c0 98       	cbi	0x18, 0	; 24
	DDRB &= ~SL6; 
     858:	b8 98       	cbi	0x17, 0	; 23
	nop();
     85a:	00 00       	nop
	uint8_t tmp = PINB & SL6;
     85c:	86 b3       	in	r24, 0x16	; 22
     85e:	81 70       	andi	r24, 0x01	; 1
	if(statusLEDs.LED6) { 
     860:	90 91 9f 00 	lds	r25, 0x009F
     864:	95 ff       	sbrs	r25, 5
     866:	02 c0       	rjmp	.+4      	; 0x86c <__stack+0xd>
		DDRB |= SL6; 
     868:	b8 9a       	sbi	0x17, 0	; 23
		PORTB |= SL6; 
     86a:	c0 9a       	sbi	0x18, 0	; 24
	}
	return tmp;
}
     86c:	08 95       	ret

0000086e <getBumperRight>:
 *		if(getBumperRight())
 *			// do something
 */
uint8_t getBumperRight(void)
{
	PORTC &= ~SL3;
     86e:	ae 98       	cbi	0x15, 6	; 21
	DDRC &= ~SL3; 
     870:	a6 98       	cbi	0x14, 6	; 20
	nop();
     872:	00 00       	nop
	uint8_t tmp = PINC & SL3;
     874:	83 b3       	in	r24, 0x13	; 19
     876:	80 74       	andi	r24, 0x40	; 64
	if(statusLEDs.LED3) { 
     878:	90 91 9f 00 	lds	r25, 0x009F
     87c:	92 ff       	sbrs	r25, 2
     87e:	02 c0       	rjmp	.+4      	; 0x884 <getBumperRight+0x16>
		DDRC |= SL3; 
     880:	a6 9a       	sbi	0x14, 6	; 20
		PORTC |= SL3; 
     882:	ae 9a       	sbi	0x15, 6	; 21
	}
	return tmp;
}
     884:	08 95       	ret

00000886 <BUMPERS_setStateChangedHandler>:
 * Use this function to set the Bumpers state change handler. 
 * 
 */
void BUMPERS_setStateChangedHandler(void (*bumperHandler)(void)) 
{
	BUMPERS_stateChangedHandler = bumperHandler;
     886:	90 93 6f 00 	sts	0x006F, r25
     88a:	80 93 6e 00 	sts	0x006E, r24
     88e:	08 95       	ret

00000890 <task_Bumpers>:
 * variables are updated automatically every 50ms and can be used everywhere
 * in your program. It can also call an event handler routine, that you
 * need to register with BUMPERS_setStateChangedHandler before.
 */
void task_Bumpers(void)
{
     890:	cf 93       	push	r28
	if(bumper_timer > 50) { // 50ms
     892:	80 91 ec 00 	lds	r24, 0x00EC
     896:	83 33       	cpi	r24, 0x33	; 51
     898:	c0 f0       	brcs	.+48     	; 0x8ca <task_Bumpers+0x3a>
		uint8_t left = getBumperLeft();
     89a:	0e 94 2b 04 	call	0x856	; 0x856 <getBumperLeft>
     89e:	c8 2f       	mov	r28, r24
		uint8_t right = getBumperRight();
     8a0:	0e 94 37 04 	call	0x86e	; 0x86e <getBumperRight>
		if(bumper_left != left || bumper_right != right) {
     8a4:	90 91 a0 00 	lds	r25, 0x00A0
     8a8:	9c 13       	cpse	r25, r28
     8aa:	04 c0       	rjmp	.+8      	; 0x8b4 <task_Bumpers+0x24>
     8ac:	90 91 fd 00 	lds	r25, 0x00FD
     8b0:	98 17       	cp	r25, r24
     8b2:	49 f0       	breq	.+18     	; 0x8c6 <task_Bumpers+0x36>
			bumper_left = left;
     8b4:	c0 93 a0 00 	sts	0x00A0, r28
			bumper_right = right;
     8b8:	80 93 fd 00 	sts	0x00FD, r24
			BUMPERS_stateChangedHandler();
     8bc:	e0 91 6e 00 	lds	r30, 0x006E
     8c0:	f0 91 6f 00 	lds	r31, 0x006F
     8c4:	09 95       	icall
		}
		bumper_timer = 0;
     8c6:	10 92 ec 00 	sts	0x00EC, r1
	}
}
     8ca:	cf 91       	pop	r28
     8cc:	08 95       	ret

000008ce <readADC>:
 *				writeString("WARNING: BAT IS LOW!\n");
 *
 */
uint16_t readADC(uint8_t channel)
{
	if((ADCSRA & (1<<ADSC))) return 0; // check if ADC is buisy...
     8ce:	36 99       	sbic	0x06, 6	; 6
     8d0:	0a c0       	rjmp	.+20     	; 0x8e6 <readADC+0x18>
	ADMUX = (1<<REFS0) | (0<<REFS1) | (channel<<MUX0);
     8d2:	80 64       	ori	r24, 0x40	; 64
     8d4:	87 b9       	out	0x07, r24	; 7
	ADCSRA = (0<<ADIE) | (1<<ADSC) | (1<<ADEN) | (1<<ADPS2) | (1<<ADPS1) | (1<<ADIF);
     8d6:	86 ed       	ldi	r24, 0xD6	; 214
     8d8:	86 b9       	out	0x06, r24	; 6
	while ((ADCSRA & (1<<ADSC))); 
     8da:	36 99       	sbic	0x06, 6	; 6
     8dc:	fe cf       	rjmp	.-4      	; 0x8da <readADC+0xc>
	ADCSRA |= (1<<ADIF);
     8de:	34 9a       	sbi	0x06, 4	; 6
	return ADC;
     8e0:	84 b1       	in	r24, 0x04	; 4
     8e2:	95 b1       	in	r25, 0x05	; 5
     8e4:	08 95       	ret
 *				writeString("WARNING: BAT IS LOW!\n");
 *
 */
uint16_t readADC(uint8_t channel)
{
	if((ADCSRA & (1<<ADSC))) return 0; // check if ADC is buisy...
     8e6:	80 e0       	ldi	r24, 0x00	; 0
     8e8:	90 e0       	ldi	r25, 0x00	; 0
	ADMUX = (1<<REFS0) | (0<<REFS1) | (channel<<MUX0);
	ADCSRA = (0<<ADIE) | (1<<ADSC) | (1<<ADEN) | (1<<ADPS2) | (1<<ADPS1) | (1<<ADIF);
	while ((ADCSRA & (1<<ADSC))); 
	ADCSRA |= (1<<ADIF);
	return ADC;
}
     8ea:	08 95       	ret

000008ec <startADC>:
 * else and then read it from the ADC result register.
 * (s. task_ADC function below)
 */
void startADC(uint8_t channel)
{
	ADMUX = (1<<REFS0) | (0<<REFS1) | (channel<<MUX0);
     8ec:	80 64       	ori	r24, 0x40	; 64
     8ee:	87 b9       	out	0x07, r24	; 7
	ADCSRA = (0<<ADIE) | (1<<ADSC) | (1<<ADEN) | (1<<ADPS2) | (1<<ADPS1) | (1<<ADIF);
     8f0:	86 ed       	ldi	r24, 0xD6	; 214
     8f2:	86 b9       	out	0x06, r24	; 6
     8f4:	08 95       	ret

000008f6 <task_ADC>:
 * get the ADC values!
 */
void task_ADC(void)
{
	static uint8_t current_adc_channel = 0;
	if(!(ADCSRA & (1<<ADSC))) {
     8f6:	36 99       	sbic	0x06, 6	; 6
     8f8:	43 c0       	rjmp	.+134    	; 0x980 <task_ADC+0x8a>
	//	ADCSRA |= (1<<ADIF);
		switch(current_adc_channel) {
     8fa:	80 91 95 00 	lds	r24, 0x0095
     8fe:	90 e0       	ldi	r25, 0x00	; 0
     900:	87 30       	cpi	r24, 0x07	; 7
     902:	91 05       	cpc	r25, r1
     904:	98 f5       	brcc	.+102    	; 0x96c <task_ADC+0x76>
     906:	fc 01       	movw	r30, r24
     908:	ef 5c       	subi	r30, 0xCF	; 207
     90a:	ff 4f       	sbci	r31, 0xFF	; 255
			case 1: adcMotorCurrentLeft = ADC; startADC(ADC_MCURRENT_R); break;
			case 2: adcMotorCurrentRight = ADC; startADC(ADC_LS_L); break;
			case 3: adcLSL = ADC; startADC(ADC_LS_R); break;
			case 4: adcLSR = ADC; startADC(ADC_ADC0); break;
			case 5: adc0 = ADC; startADC(ADC_ADC1); break;
			case 6: adc1 = ADC; startADC(ADC_BAT); break;
     90c:	84 b1       	in	r24, 0x04	; 4
     90e:	95 b1       	in	r25, 0x05	; 5
void task_ADC(void)
{
	static uint8_t current_adc_channel = 0;
	if(!(ADCSRA & (1<<ADSC))) {
	//	ADCSRA |= (1<<ADIF);
		switch(current_adc_channel) {
     910:	0c 94 55 10 	jmp	0x20aa	; 0x20aa <__tablejump2__>
			case 0: adcBat = ADC; startADC(ADC_MCURRENT_L); break;
     914:	90 93 01 01 	sts	0x0101, r25
     918:	80 93 00 01 	sts	0x0100, r24
 * else and then read it from the ADC result register.
 * (s. task_ADC function below)
 */
void startADC(uint8_t channel)
{
	ADMUX = (1<<REFS0) | (0<<REFS1) | (channel<<MUX0);
     91c:	86 e4       	ldi	r24, 0x46	; 70
     91e:	23 c0       	rjmp	.+70     	; 0x966 <task_ADC+0x70>
	static uint8_t current_adc_channel = 0;
	if(!(ADCSRA & (1<<ADSC))) {
	//	ADCSRA |= (1<<ADIF);
		switch(current_adc_channel) {
			case 0: adcBat = ADC; startADC(ADC_MCURRENT_L); break;
			case 1: adcMotorCurrentLeft = ADC; startADC(ADC_MCURRENT_R); break;
     920:	90 93 06 01 	sts	0x0106, r25
     924:	80 93 05 01 	sts	0x0105, r24
 * else and then read it from the ADC result register.
 * (s. task_ADC function below)
 */
void startADC(uint8_t channel)
{
	ADMUX = (1<<REFS0) | (0<<REFS1) | (channel<<MUX0);
     928:	85 e4       	ldi	r24, 0x45	; 69
     92a:	1d c0       	rjmp	.+58     	; 0x966 <task_ADC+0x70>
	if(!(ADCSRA & (1<<ADSC))) {
	//	ADCSRA |= (1<<ADIF);
		switch(current_adc_channel) {
			case 0: adcBat = ADC; startADC(ADC_MCURRENT_L); break;
			case 1: adcMotorCurrentLeft = ADC; startADC(ADC_MCURRENT_R); break;
			case 2: adcMotorCurrentRight = ADC; startADC(ADC_LS_L); break;
     92c:	90 93 f7 00 	sts	0x00F7, r25
     930:	80 93 f6 00 	sts	0x00F6, r24
 * else and then read it from the ADC result register.
 * (s. task_ADC function below)
 */
void startADC(uint8_t channel)
{
	ADMUX = (1<<REFS0) | (0<<REFS1) | (channel<<MUX0);
     934:	83 e4       	ldi	r24, 0x43	; 67
     936:	17 c0       	rjmp	.+46     	; 0x966 <task_ADC+0x70>
	//	ADCSRA |= (1<<ADIF);
		switch(current_adc_channel) {
			case 0: adcBat = ADC; startADC(ADC_MCURRENT_L); break;
			case 1: adcMotorCurrentLeft = ADC; startADC(ADC_MCURRENT_R); break;
			case 2: adcMotorCurrentRight = ADC; startADC(ADC_LS_L); break;
			case 3: adcLSL = ADC; startADC(ADC_LS_R); break;
     938:	90 93 c0 00 	sts	0x00C0, r25
     93c:	80 93 bf 00 	sts	0x00BF, r24
 * else and then read it from the ADC result register.
 * (s. task_ADC function below)
 */
void startADC(uint8_t channel)
{
	ADMUX = (1<<REFS0) | (0<<REFS1) | (channel<<MUX0);
     940:	82 e4       	ldi	r24, 0x42	; 66
     942:	11 c0       	rjmp	.+34     	; 0x966 <task_ADC+0x70>
		switch(current_adc_channel) {
			case 0: adcBat = ADC; startADC(ADC_MCURRENT_L); break;
			case 1: adcMotorCurrentLeft = ADC; startADC(ADC_MCURRENT_R); break;
			case 2: adcMotorCurrentRight = ADC; startADC(ADC_LS_L); break;
			case 3: adcLSL = ADC; startADC(ADC_LS_R); break;
			case 4: adcLSR = ADC; startADC(ADC_ADC0); break;
     944:	90 93 e6 00 	sts	0x00E6, r25
     948:	80 93 e5 00 	sts	0x00E5, r24
 * else and then read it from the ADC result register.
 * (s. task_ADC function below)
 */
void startADC(uint8_t channel)
{
	ADMUX = (1<<REFS0) | (0<<REFS1) | (channel<<MUX0);
     94c:	80 e4       	ldi	r24, 0x40	; 64
     94e:	0b c0       	rjmp	.+22     	; 0x966 <task_ADC+0x70>
			case 0: adcBat = ADC; startADC(ADC_MCURRENT_L); break;
			case 1: adcMotorCurrentLeft = ADC; startADC(ADC_MCURRENT_R); break;
			case 2: adcMotorCurrentRight = ADC; startADC(ADC_LS_L); break;
			case 3: adcLSL = ADC; startADC(ADC_LS_R); break;
			case 4: adcLSR = ADC; startADC(ADC_ADC0); break;
			case 5: adc0 = ADC; startADC(ADC_ADC1); break;
     950:	90 93 f4 00 	sts	0x00F4, r25
     954:	80 93 f3 00 	sts	0x00F3, r24
 * else and then read it from the ADC result register.
 * (s. task_ADC function below)
 */
void startADC(uint8_t channel)
{
	ADMUX = (1<<REFS0) | (0<<REFS1) | (channel<<MUX0);
     958:	81 e4       	ldi	r24, 0x41	; 65
     95a:	05 c0       	rjmp	.+10     	; 0x966 <task_ADC+0x70>
			case 1: adcMotorCurrentLeft = ADC; startADC(ADC_MCURRENT_R); break;
			case 2: adcMotorCurrentRight = ADC; startADC(ADC_LS_L); break;
			case 3: adcLSL = ADC; startADC(ADC_LS_R); break;
			case 4: adcLSR = ADC; startADC(ADC_ADC0); break;
			case 5: adc0 = ADC; startADC(ADC_ADC1); break;
			case 6: adc1 = ADC; startADC(ADC_BAT); break;
     95c:	90 93 be 00 	sts	0x00BE, r25
     960:	80 93 bd 00 	sts	0x00BD, r24
 * else and then read it from the ADC result register.
 * (s. task_ADC function below)
 */
void startADC(uint8_t channel)
{
	ADMUX = (1<<REFS0) | (0<<REFS1) | (channel<<MUX0);
     964:	87 e4       	ldi	r24, 0x47	; 71
     966:	87 b9       	out	0x07, r24	; 7
	ADCSRA = (0<<ADIE) | (1<<ADSC) | (1<<ADEN) | (1<<ADPS2) | (1<<ADPS1) | (1<<ADIF);
     968:	86 ed       	ldi	r24, 0xD6	; 214
     96a:	86 b9       	out	0x06, r24	; 6
			case 3: adcLSL = ADC; startADC(ADC_LS_R); break;
			case 4: adcLSR = ADC; startADC(ADC_ADC0); break;
			case 5: adc0 = ADC; startADC(ADC_ADC1); break;
			case 6: adc1 = ADC; startADC(ADC_BAT); break;
		}
		if(current_adc_channel == 6)
     96c:	80 91 95 00 	lds	r24, 0x0095
     970:	86 30       	cpi	r24, 0x06	; 6
     972:	19 f4       	brne	.+6      	; 0x97a <task_ADC+0x84>
			current_adc_channel = 0;
     974:	10 92 95 00 	sts	0x0095, r1
     978:	08 95       	ret
		else
			current_adc_channel++;
     97a:	8f 5f       	subi	r24, 0xFF	; 255
     97c:	80 93 95 00 	sts	0x0095, r24
     980:	08 95       	ret

00000982 <__vector_1>:
 * External Interrupt 0 ISR
 * (ENCL)
 *
 */
ISR (INT0_vect)
{
     982:	1f 92       	push	r1
     984:	0f 92       	push	r0
     986:	0f b6       	in	r0, 0x3f	; 63
     988:	0f 92       	push	r0
     98a:	11 24       	eor	r1, r1
     98c:	8f 93       	push	r24
     98e:	9f 93       	push	r25
	mleft_dist++;
     990:	80 91 fb 00 	lds	r24, 0x00FB
     994:	90 91 fc 00 	lds	r25, 0x00FC
     998:	01 96       	adiw	r24, 0x01	; 1
     99a:	90 93 fc 00 	sts	0x00FC, r25
     99e:	80 93 fb 00 	sts	0x00FB, r24
	mleft_counter++;	
     9a2:	80 91 f1 00 	lds	r24, 0x00F1
     9a6:	90 91 f2 00 	lds	r25, 0x00F2
     9aa:	01 96       	adiw	r24, 0x01	; 1
     9ac:	90 93 f2 00 	sts	0x00F2, r25
     9b0:	80 93 f1 00 	sts	0x00F1, r24
		else {
			cycle_h_l = cycle_h_l_tmp;
			cycle_h_l_tmp = 0;
		}
	#endif
}
     9b4:	9f 91       	pop	r25
     9b6:	8f 91       	pop	r24
     9b8:	0f 90       	pop	r0
     9ba:	0f be       	out	0x3f, r0	; 63
     9bc:	0f 90       	pop	r0
     9be:	1f 90       	pop	r1
     9c0:	18 95       	reti

000009c2 <__vector_2>:
 * External Interrupt 1 ISR
 * (ENCR)
 *
 */
ISR (INT1_vect)
{
     9c2:	1f 92       	push	r1
     9c4:	0f 92       	push	r0
     9c6:	0f b6       	in	r0, 0x3f	; 63
     9c8:	0f 92       	push	r0
     9ca:	11 24       	eor	r1, r1
     9cc:	8f 93       	push	r24
     9ce:	9f 93       	push	r25
	mright_dist++;
     9d0:	80 91 ed 00 	lds	r24, 0x00ED
     9d4:	90 91 ee 00 	lds	r25, 0x00EE
     9d8:	01 96       	adiw	r24, 0x01	; 1
     9da:	90 93 ee 00 	sts	0x00EE, r25
     9de:	80 93 ed 00 	sts	0x00ED, r24
	mright_counter++;
     9e2:	80 91 c7 00 	lds	r24, 0x00C7
     9e6:	90 91 c8 00 	lds	r25, 0x00C8
     9ea:	01 96       	adiw	r24, 0x01	; 1
     9ec:	90 93 c8 00 	sts	0x00C8, r25
     9f0:	80 93 c7 00 	sts	0x00C7, r24
			cycle_h_r += cycle_h_r_tmp;
			cycle_h_r >>=1;
			cycle_h_r_tmp = 0;
		}
	#endif
}
     9f4:	9f 91       	pop	r25
     9f6:	8f 91       	pop	r24
     9f8:	0f 90       	pop	r0
     9fa:	0f be       	out	0x3f, r0	; 63
     9fc:	0f 90       	pop	r0
     9fe:	1f 90       	pop	r1
     a00:	18 95       	reti

00000a02 <MOTIONCONTROL_setStateChangedHandler>:
 * Use this function to set the Motion Control state change handler. 
 * 
 */
void MOTIONCONTROL_setStateChangedHandler(void (*motionControlHandler)(void)) 
{
	MOTIONCONTROL_stateChangedHandler = motionControlHandler;
     a02:	90 93 6d 00 	sts	0x006D, r25
     a06:	80 93 6c 00 	sts	0x006C, r24
     a0a:	08 95       	ret

00000a0c <moveAtSpeed>:
 * Also 200 leaves a bit room to the maximum possible PWM value when you 
 * put additional load onto the Robot or drive up a ramp etc.  
 *
 */
void moveAtSpeed(uint8_t desired_speed_left, uint8_t desired_speed_right)
{
     a0c:	89 3c       	cpi	r24, 0xC9	; 201
     a0e:	08 f0       	brcs	.+2      	; 0xa12 <moveAtSpeed+0x6>
     a10:	88 ec       	ldi	r24, 0xC8	; 200
	if(desired_speed_left > 200) desired_speed_left = 200; 
	if(desired_speed_right > 200) desired_speed_right = 200;
	mleft_des_speed = desired_speed_left;
     a12:	90 e0       	ldi	r25, 0x00	; 0
     a14:	90 93 a6 00 	sts	0x00A6, r25
     a18:	80 93 a5 00 	sts	0x00A5, r24
     a1c:	69 3c       	cpi	r22, 0xC9	; 201
     a1e:	08 f0       	brcs	.+2      	; 0xa22 <moveAtSpeed+0x16>
     a20:	68 ec       	ldi	r22, 0xC8	; 200
	mright_des_speed = desired_speed_right;
     a22:	70 e0       	ldi	r23, 0x00	; 0
     a24:	70 93 a4 00 	sts	0x00A4, r23
     a28:	60 93 a3 00 	sts	0x00A3, r22
     a2c:	08 95       	ret

00000a2e <changeDirection>:
 * This is done to increase motors and gears lifetime and to avoid hard cut changes.
 *
 */
void changeDirection(uint8_t dir)
{
	drive_dir = dir;
     a2e:	80 93 84 00 	sts	0x0084, r24
	mleft_des_dir = (dir == BWD || dir == LEFT);
     a32:	2f ef       	ldi	r18, 0xFF	; 255
     a34:	28 0f       	add	r18, r24
     a36:	91 e0       	ldi	r25, 0x01	; 1
     a38:	22 30       	cpi	r18, 0x02	; 2
     a3a:	08 f0       	brcs	.+2      	; 0xa3e <changeDirection+0x10>
     a3c:	90 e0       	ldi	r25, 0x00	; 0
     a3e:	90 93 88 00 	sts	0x0088, r25
	mright_des_dir = (dir == BWD || dir == RIGHT);
     a42:	8d 7f       	andi	r24, 0xFD	; 253
     a44:	91 e0       	ldi	r25, 0x01	; 1
     a46:	81 30       	cpi	r24, 0x01	; 1
     a48:	09 f0       	breq	.+2      	; 0xa4c <changeDirection+0x1e>
     a4a:	90 e0       	ldi	r25, 0x00	; 0
     a4c:	90 93 87 00 	sts	0x0087, r25
     a50:	08 95       	ret

00000a52 <moveAtSpeedDirection>:
/**
 *
 */
void moveAtSpeedDirection(int16_t desired_speed_left, int16_t desired_speed_right)
{
	mleft_des_dir = desired_speed_left < 0;
     a52:	29 2f       	mov	r18, r25
     a54:	22 1f       	adc	r18, r18
     a56:	22 27       	eor	r18, r18
     a58:	22 1f       	adc	r18, r18
     a5a:	20 93 88 00 	sts	0x0088, r18
	mright_des_dir = desired_speed_right < 0;
     a5e:	77 1f       	adc	r23, r23
     a60:	77 27       	eor	r23, r23
     a62:	77 1f       	adc	r23, r23
     a64:	70 93 87 00 	sts	0x0087, r23
  
  //drive_dir = ;  muss ich mir noch berlegen ist aber auch unwichtig TODO
  
  uint8_t speed_l_abs = desired_speed_left > 0 ? (uint8_t)desired_speed_left : (uint8_t)(-desired_speed_left);
     a68:	18 16       	cp	r1, r24
     a6a:	19 06       	cpc	r1, r25
     a6c:	14 f0       	brlt	.+4      	; 0xa72 <moveAtSpeedDirection+0x20>
     a6e:	81 95       	neg	r24
  uint8_t speed_r_abs = desired_speed_left > 0 ? (uint8_t)desired_speed_right : (uint8_t)(-desired_speed_right);
     a70:	61 95       	neg	r22
  moveAtSpeed(speed_l_abs, speed_r_abs);
     a72:	0c 94 06 05 	jmp	0xa0c	; 0xa0c <moveAtSpeed>

00000a76 <isMovementComplete>:
 * You can use this function to check if there is any movement going on or if
 * every operation like moving a specific distance or rotating has been finished. 
 */
uint8_t isMovementComplete(void)
{
	return !(motion_status.move_L || motion_status.move_R);
     a76:	90 91 9e 00 	lds	r25, 0x009E
     a7a:	93 70       	andi	r25, 0x03	; 3
     a7c:	81 e0       	ldi	r24, 0x01	; 1
     a7e:	09 f0       	breq	.+2      	; 0xa82 <isMovementComplete+0xc>
     a80:	80 e0       	ldi	r24, 0x00	; 0
}
     a82:	08 95       	ret

00000a84 <stop>:
 * This can be used for example if the Bumpers detected and obstacle during
 * movement...
 */
void stop(void)
{
	mleft_des_speed = 0;
     a84:	10 92 a6 00 	sts	0x00A6, r1
     a88:	10 92 a5 00 	sts	0x00A5, r1
	mright_des_speed = 0;
     a8c:	10 92 a4 00 	sts	0x00A4, r1
     a90:	10 92 a3 00 	sts	0x00A3, r1
	left_i = 0;
     a94:	10 92 b0 00 	sts	0x00B0, r1
     a98:	10 92 af 00 	sts	0x00AF, r1
	right_i = 0;
     a9c:	10 92 eb 00 	sts	0x00EB, r1
     aa0:	10 92 ea 00 	sts	0x00EA, r1
	motion_status.move_L = false;
     aa4:	80 91 9e 00 	lds	r24, 0x009E
	motion_status.move_R = false;
     aa8:	8e 7f       	andi	r24, 0xFE	; 254
     aaa:	8d 7f       	andi	r24, 0xFD	; 253
     aac:	80 93 9e 00 	sts	0x009E, r24
	motion_status_tmp = motion_status.byte;
     ab0:	80 93 ff 00 	sts	0x00FF, r24
	MOTIONCONTROL_stateChangedHandler();
     ab4:	e0 91 6c 00 	lds	r30, 0x006C
     ab8:	f0 91 6d 00 	lds	r31, 0x006D
     abc:	09 94       	ijmp

00000abe <setMotorPower>:
 * task_motionControl!  This will not work!
 * -------------------------------------------------------------
 *
 */
void setMotorPower(uint8_t left_power, uint8_t right_power)
{
     abe:	63 3d       	cpi	r22, 0xD3	; 211
     ac0:	08 f0       	brcs	.+2      	; 0xac4 <setMotorPower+0x6>
     ac2:	62 ed       	ldi	r22, 0xD2	; 210
	if(left_power > 210) left_power = 210;
	if(right_power > 210) right_power = 210;
	mright_power = right_power;
     ac4:	70 e0       	ldi	r23, 0x00	; 0
     ac6:	70 93 c6 00 	sts	0x00C6, r23
     aca:	60 93 c5 00 	sts	0x00C5, r22
     ace:	83 3d       	cpi	r24, 0xD3	; 211
     ad0:	08 f0       	brcs	.+2      	; 0xad4 <setMotorPower+0x16>
     ad2:	82 ed       	ldi	r24, 0xD2	; 210
	mleft_power = left_power;
     ad4:	90 e0       	ldi	r25, 0x00	; 0
     ad6:	90 93 b6 00 	sts	0x00B6, r25
     ada:	80 93 b5 00 	sts	0x00B5, r24
     ade:	08 95       	ret

00000ae0 <setMotorDir>:
 *			setMotorDir(BWD,BWD); // Move backwards
 *
 */
void setMotorDir(uint8_t left_dir, uint8_t right_dir)
{
	mleft_dir = left_dir;
     ae0:	80 93 86 00 	sts	0x0086, r24
	mright_dir = right_dir;
     ae4:	60 93 85 00 	sts	0x0085, r22
	mleft_des_dir = left_dir;
     ae8:	80 93 88 00 	sts	0x0088, r24
	mright_des_dir = right_dir;
     aec:	60 93 87 00 	sts	0x0087, r22
	if(left_dir)
     af0:	88 23       	and	r24, r24
     af2:	11 f0       	breq	.+4      	; 0xaf8 <setMotorDir+0x18>
		PORTC |= DIR_L;
     af4:	aa 9a       	sbi	0x15, 2	; 21
     af6:	01 c0       	rjmp	.+2      	; 0xafa <setMotorDir+0x1a>
	else
		PORTC &= ~DIR_L;
     af8:	aa 98       	cbi	0x15, 2	; 21
	if(right_dir)
     afa:	66 23       	and	r22, r22
     afc:	11 f0       	breq	.+4      	; 0xb02 <setMotorDir+0x22>
		PORTC |= DIR_R;
     afe:	ab 9a       	sbi	0x15, 3	; 21
     b00:	08 95       	ret
	else
		PORTC &= ~DIR_R;
     b02:	ab 98       	cbi	0x15, 3	; 21
     b04:	08 95       	ret

00000b06 <IRCOMM_sendRC5>:
 *  // with togglebit NOT set.
 *  
 */
void IRCOMM_sendRC5(uint8_t adr, uint8_t data)
{
	while(ircomm_send){TIMSK |= (1 << OCIE2);}
     b06:	90 91 aa 00 	lds	r25, 0x00AA
     b0a:	99 23       	and	r25, r25
     b0c:	21 f0       	breq	.+8      	; 0xb16 <IRCOMM_sendRC5+0x10>
     b0e:	99 b7       	in	r25, 0x39	; 57
     b10:	90 68       	ori	r25, 0x80	; 128
     b12:	99 bf       	out	0x39, r25	; 57
     b14:	f8 cf       	rjmp	.-16     	; 0xb06 <IRCOMM_sendRC5>
	// Here we create the RC5 data packet:
	ircomm_data_tmp = 0x3000 | (((uint16_t)(adr & 0x3F)) << 6) | (((uint16_t)(data & 0x3F)));
     b16:	6f 73       	andi	r22, 0x3F	; 63
     b18:	70 e0       	ldi	r23, 0x00	; 0
     b1a:	70 63       	ori	r23, 0x30	; 48
     b1c:	8f 73       	andi	r24, 0x3F	; 63
     b1e:	20 e4       	ldi	r18, 0x40	; 64
     b20:	82 9f       	mul	r24, r18
     b22:	c0 01       	movw	r24, r0
     b24:	11 24       	eor	r1, r1
     b26:	68 2b       	or	r22, r24
     b28:	79 2b       	or	r23, r25
     b2a:	70 93 ca 00 	sts	0x00CA, r23
     b2e:	60 93 c9 00 	sts	0x00C9, r22
	sysStatACS.ircomm_transmit = true;
     b32:	80 91 a9 00 	lds	r24, 0x00A9
     b36:	80 64       	ori	r24, 0x40	; 64
     b38:	80 93 a9 00 	sts	0x00A9, r24
     b3c:	08 95       	ret

00000b3e <__vector_4>:
 * NEVER try to control the IRCOMM by your own routines if you do not
 * know what you are doing!
 *
 */
ISR (TIMER2_COMP_vect)
{
     b3e:	1f 92       	push	r1
     b40:	0f 92       	push	r0
     b42:	0f b6       	in	r0, 0x3f	; 63
     b44:	0f 92       	push	r0
     b46:	11 24       	eor	r1, r1
     b48:	8f 93       	push	r24
     b4a:	9f 93       	push	r25
	static uint8_t ircomm_pulse;
	if(acs_state < 2) { // If ACS is not active, perform IRCOMM transmissions
     b4c:	80 91 6b 00 	lds	r24, 0x006B
     b50:	82 30       	cpi	r24, 0x02	; 2
     b52:	b0 f5       	brcc	.+108    	; 0xbc0 <__vector_4+0x82>
		if(ircomm_pulse) { // Do we have IR pulses to send?
     b54:	80 91 94 00 	lds	r24, 0x0094
     b58:	88 23       	and	r24, r24
     b5a:	d1 f0       	breq	.+52     	; 0xb90 <__vector_4+0x52>
			if(ircomm_pulse < 60) { // Bi-Phase encoding...
     b5c:	8c 33       	cpi	r24, 0x3C	; 60
     b5e:	38 f4       	brcc	.+14     	; 0xb6e <__vector_4+0x30>
				if(ircomm_data & 0x4000) // check current bit
     b60:	80 91 e3 00 	lds	r24, 0x00E3
     b64:	90 91 e4 00 	lds	r25, 0x00E4
     b68:	96 ff       	sbrs	r25, 6
     b6a:	07 c0       	rjmp	.+14     	; 0xb7a <__vector_4+0x3c>
     b6c:	08 c0       	rjmp	.+16     	; 0xb7e <__vector_4+0x40>
					PORTD ^= (1<<PIND7); // Toggle IRCOMM port
				else
					PORTD &= ~(1<<PIND7); // deactivate IRCOMM port
			}
			else if(ircomm_data & 0x4000) // The same as above, but the other way round:
     b6e:	80 91 e3 00 	lds	r24, 0x00E3
     b72:	90 91 e4 00 	lds	r25, 0x00E4
     b76:	96 ff       	sbrs	r25, 6
     b78:	02 c0       	rjmp	.+4      	; 0xb7e <__vector_4+0x40>
				PORTD &= ~(1<<PIND7); // deactivate IRCOMM port
     b7a:	97 98       	cbi	0x12, 7	; 18
     b7c:	03 c0       	rjmp	.+6      	; 0xb84 <__vector_4+0x46>
			else
				PORTD ^= (1<<PIND7); // Toggle IRCOMM port
     b7e:	82 b3       	in	r24, 0x12	; 18
     b80:	80 58       	subi	r24, 0x80	; 128
     b82:	82 bb       	out	0x12, r24	; 18
			ircomm_pulse--;
     b84:	80 91 94 00 	lds	r24, 0x0094
     b88:	81 50       	subi	r24, 0x01	; 1
     b8a:	80 93 94 00 	sts	0x0094, r24
     b8e:	30 c0       	rjmp	.+96     	; 0xbf0 <__vector_4+0xb2>
		}
		else if(ircomm_send) { // Do we still have data?
     b90:	80 91 aa 00 	lds	r24, 0x00AA
			PORTD &= ~(1<<PIND7);
     b94:	97 98       	cbi	0x12, 7	; 18
				PORTD &= ~(1<<PIND7); // deactivate IRCOMM port
			else
				PORTD ^= (1<<PIND7); // Toggle IRCOMM port
			ircomm_pulse--;
		}
		else if(ircomm_send) { // Do we still have data?
     b96:	88 23       	and	r24, r24
     b98:	59 f1       	breq	.+86     	; 0xbf0 <__vector_4+0xb2>
			PORTD &= ~(1<<PIND7);
			ircomm_data <<= 1; // Next Bit!
     b9a:	80 91 e3 00 	lds	r24, 0x00E3
     b9e:	90 91 e4 00 	lds	r25, 0x00E4
     ba2:	88 0f       	add	r24, r24
     ba4:	99 1f       	adc	r25, r25
     ba6:	90 93 e4 00 	sts	0x00E4, r25
     baa:	80 93 e3 00 	sts	0x00E3, r24
			ircomm_pulse = 120;
     bae:	88 e7       	ldi	r24, 0x78	; 120
     bb0:	80 93 94 00 	sts	0x0094, r24
			ircomm_send--;
     bb4:	80 91 aa 00 	lds	r24, 0x00AA
     bb8:	81 50       	subi	r24, 0x01	; 1
     bba:	80 93 aa 00 	sts	0x00AA, r24
     bbe:	18 c0       	rjmp	.+48     	; 0xbf0 <__vector_4+0xb2>
		}
		else 
			PORTD &= ~(1<<PIND7); // no more pulses - IR LEDs off!
	}
	else if(acs_pulse) { // Send ACS IR pulses?
     bc0:	80 91 ae 00 	lds	r24, 0x00AE
     bc4:	88 23       	and	r24, r24
     bc6:	91 f0       	breq	.+36     	; 0xbec <__vector_4+0xae>
		if(sysStatACS.channel == ACS_CHANNEL_LEFT) // which channel?
     bc8:	80 91 a9 00 	lds	r24, 0x00A9
     bcc:	80 fd       	sbrc	r24, 0
     bce:	05 c0       	rjmp	.+10     	; 0xbda <__vector_4+0x9c>
			PORTB ^= ACS_L; 
     bd0:	88 b3       	in	r24, 0x18	; 24
     bd2:	90 e4       	ldi	r25, 0x40	; 64
     bd4:	89 27       	eor	r24, r25
     bd6:	88 bb       	out	0x18, r24	; 24
     bd8:	03 c0       	rjmp	.+6      	; 0xbe0 <__vector_4+0xa2>
		else 			
			PORTC ^= ACS_R; 
     bda:	85 b3       	in	r24, 0x15	; 21
     bdc:	80 58       	subi	r24, 0x80	; 128
     bde:	85 bb       	out	0x15, r24	; 21
		acs_pulse--;
     be0:	80 91 ae 00 	lds	r24, 0x00AE
     be4:	81 50       	subi	r24, 0x01	; 1
     be6:	80 93 ae 00 	sts	0x00AE, r24
     bea:	02 c0       	rjmp	.+4      	; 0xbf0 <__vector_4+0xb2>
	}
	else { // no more pulses - IR LEDs off!
		PORTB |= ACS_L;
     bec:	c6 9a       	sbi	0x18, 6	; 24
		PORTC |= ACS_R;
     bee:	af 9a       	sbi	0x15, 7	; 21
	}
}
     bf0:	9f 91       	pop	r25
     bf2:	8f 91       	pop	r24
     bf4:	0f 90       	pop	r0
     bf6:	0f be       	out	0x3f, r0	; 63
     bf8:	0f 90       	pop	r0
     bfa:	1f 90       	pop	r1
     bfc:	18 95       	reti

00000bfe <__vector_3>:
/**
 * External Interrupt 2 ISR (ACS)
 * Detects ACS Events.
 */
ISR (INT2_vect)
{
     bfe:	1f 92       	push	r1
     c00:	0f 92       	push	r0
     c02:	0f b6       	in	r0, 0x3f	; 63
     c04:	0f 92       	push	r0
     c06:	11 24       	eor	r1, r1
     c08:	8f 93       	push	r24
	if(acs_state == ACS_STATE_WAIT_LEFT || acs_state == ACS_STATE_WAIT_RIGHT)
     c0a:	80 91 6b 00 	lds	r24, 0x006B
     c0e:	83 30       	cpi	r24, 0x03	; 3
     c10:	11 f0       	breq	.+4      	; 0xc16 <__vector_3+0x18>
     c12:	86 30       	cpi	r24, 0x06	; 6
     c14:	79 f4       	brne	.+30     	; 0xc34 <__vector_3+0x36>
		if(!sysStatACS.detect_rc5 && sysStatACS.acs_go && !(PINB & ACS))
     c16:	80 91 a9 00 	lds	r24, 0x00A9
     c1a:	84 fd       	sbrc	r24, 4
     c1c:	0b c0       	rjmp	.+22     	; 0xc34 <__vector_3+0x36>
     c1e:	80 91 a9 00 	lds	r24, 0x00A9
     c22:	85 ff       	sbrs	r24, 5
     c24:	07 c0       	rjmp	.+14     	; 0xc34 <__vector_3+0x36>
     c26:	b2 99       	sbic	0x16, 2	; 22
     c28:	05 c0       	rjmp	.+10     	; 0xc34 <__vector_3+0x36>
			acs_event_counter++;
     c2a:	80 91 fe 00 	lds	r24, 0x00FE
     c2e:	8f 5f       	subi	r24, 0xFF	; 255
     c30:	80 93 fe 00 	sts	0x00FE, r24
	sysStatACS.pin = (PINB & ACS);
     c34:	86 b3       	in	r24, 0x16	; 22
     c36:	80 91 a9 00 	lds	r24, 0x00A9
     c3a:	8d 7f       	andi	r24, 0xFD	; 253
     c3c:	80 93 a9 00 	sts	0x00A9, r24
}
     c40:	8f 91       	pop	r24
     c42:	0f 90       	pop	r0
     c44:	0f be       	out	0x3f, r0	; 63
     c46:	0f 90       	pop	r0
     c48:	1f 90       	pop	r1
     c4a:	18 95       	reti

00000c4c <IRCOMM_setRC5DataReadyHandler>:
 * the IRCOMM receives a RC5 Data packet.
 * 
 */
void IRCOMM_setRC5DataReadyHandler(void (*rc5Handler)(RC5data_t rc5data)) 
{
	IRCOMM_RC5dataReadyHandler = rc5Handler;
     c4c:	90 93 6a 00 	sts	0x006A, r25
     c50:	80 93 69 00 	sts	0x0069, r24
     c54:	08 95       	ret

00000c56 <ACS_setStateChangedHandler>:
 * OR if the obstacle moves out of the line of sight and ACS
 * reports "Way is free" again.
 */
void ACS_setStateChangedHandler(void (*acsHandler)(void)) 
{
	ACS_stateChangedHandler = acsHandler;
     c56:	90 93 68 00 	sts	0x0068, r25
     c5a:	80 93 67 00 	sts	0x0067, r24
     c5e:	08 95       	ret

00000c60 <task_ACS>:

void task_ACS(void)
{
 	static uint8_t acs_counter;
	static uint16_t acs_detect_timeout;
	if(acs_timer >= ACS_UPDATE_INTERVAL) { 
     c60:	80 91 c1 00 	lds	r24, 0x00C1
     c64:	90 91 c2 00 	lds	r25, 0x00C2
     c68:	02 97       	sbiw	r24, 0x02	; 2
     c6a:	08 f4       	brcc	.+2      	; 0xc6e <task_ACS+0xe>
     c6c:	3c c1       	rjmp	.+632    	; 0xee6 <task_ACS+0x286>
		if(!sysStatACS.detect_rc5) {    // Any RC5 reception detected?
     c6e:	80 91 a9 00 	lds	r24, 0x00A9
     c72:	84 fd       	sbrc	r24, 4
     c74:	19 c1       	rjmp	.+562    	; 0xea8 <task_ACS+0x248>
			switch(acs_state) {       // No - perform IR Transmission and ACS tasks...
     c76:	80 91 6b 00 	lds	r24, 0x006B
     c7a:	82 30       	cpi	r24, 0x02	; 2
     c7c:	09 f4       	brne	.+2      	; 0xc80 <task_ACS+0x20>
     c7e:	67 c0       	rjmp	.+206    	; 0xd4e <task_ACS+0xee>
     c80:	28 f4       	brcc	.+10     	; 0xc8c <task_ACS+0x2c>
     c82:	88 23       	and	r24, r24
     c84:	69 f0       	breq	.+26     	; 0xca0 <task_ACS+0x40>
     c86:	81 30       	cpi	r24, 0x01	; 1
     c88:	91 f0       	breq	.+36     	; 0xcae <task_ACS+0x4e>
     c8a:	14 c1       	rjmp	.+552    	; 0xeb4 <task_ACS+0x254>
     c8c:	85 30       	cpi	r24, 0x05	; 5
     c8e:	09 f4       	brne	.+2      	; 0xc92 <task_ACS+0x32>
     c90:	af c0       	rjmp	.+350    	; 0xdf0 <task_ACS+0x190>
     c92:	86 30       	cpi	r24, 0x06	; 6
     c94:	09 f4       	brne	.+2      	; 0xc98 <task_ACS+0x38>
     c96:	c5 c0       	rjmp	.+394    	; 0xe22 <task_ACS+0x1c2>
     c98:	83 30       	cpi	r24, 0x03	; 3
     c9a:	09 f0       	breq	.+2      	; 0xc9e <task_ACS+0x3e>
     c9c:	0b c1       	rjmp	.+534    	; 0xeb4 <task_ACS+0x254>
     c9e:	6f c0       	rjmp	.+222    	; 0xd7e <task_ACS+0x11e>
				case ACS_STATE_IDLE: // Disable Timer2 interrupt to save processing time:
					TIMSK &= ~(1 << OCIE2);
     ca0:	89 b7       	in	r24, 0x39	; 57
     ca2:	8f 77       	andi	r24, 0x7F	; 127
     ca4:	89 bf       	out	0x39, r24	; 57
					IRCOMM_OFF();
     ca6:	97 98       	cbi	0x12, 7	; 18
					PORTB |= ACS_L;
     ca8:	c6 9a       	sbi	0x18, 6	; 24
					PORTC |= ACS_R;
     caa:	af 9a       	sbi	0x15, 7	; 21
				break;
     cac:	03 c1       	rjmp	.+518    	; 0xeb4 <task_ACS+0x254>
				case ACS_STATE_IRCOMM_DELAY: // Check for IRCOMM transmit data:
					if(!ircomm_send) {  // Transmission finished?
     cae:	80 91 aa 00 	lds	r24, 0x00AA
     cb2:	81 11       	cpse	r24, r1
     cb4:	2a c0       	rjmp	.+84     	; 0xd0a <task_ACS+0xaa>
						if(sysStatACS.ircomm_transmit) { // New transmission?
     cb6:	80 91 a9 00 	lds	r24, 0x00A9
     cba:	86 ff       	sbrs	r24, 6
     cbc:	14 c0       	rjmp	.+40     	; 0xce6 <task_ACS+0x86>
							ircomm_data = ircomm_data_tmp;
     cbe:	80 91 c9 00 	lds	r24, 0x00C9
     cc2:	90 91 ca 00 	lds	r25, 0x00CA
     cc6:	90 93 e4 00 	sts	0x00E4, r25
     cca:	80 93 e3 00 	sts	0x00E3, r24
							ircomm_send = 14;
     cce:	8e e0       	ldi	r24, 0x0E	; 14
     cd0:	80 93 aa 00 	sts	0x00AA, r24
							sysStatACS.ircomm_transmit = false;
     cd4:	80 91 a9 00 	lds	r24, 0x00A9
     cd8:	8f 7b       	andi	r24, 0xBF	; 191
     cda:	80 93 a9 00 	sts	0x00A9, r24
							TIMSK |= (1 << OCIE2);
     cde:	89 b7       	in	r24, 0x39	; 57
     ce0:	80 68       	ori	r24, 0x80	; 128
     ce2:	89 bf       	out	0x39, r24	; 57
     ce4:	06 c0       	rjmp	.+12     	; 0xcf2 <task_ACS+0x92>
						}
						else {
							TIMSK &= ~(1 << OCIE2);
     ce6:	89 b7       	in	r24, 0x39	; 57
     ce8:	8f 77       	andi	r24, 0x7F	; 127
     cea:	89 bf       	out	0x39, r24	; 57
							IRCOMM_OFF();
     cec:	97 98       	cbi	0x12, 7	; 18
							PORTB |= ACS_L;
     cee:	c6 9a       	sbi	0x18, 6	; 24
							PORTC |= ACS_R;
     cf0:	af 9a       	sbi	0x15, 7	; 21
						}
						if(acs_counter++ >= ACS_IRCOMM_WAIT_TIME) // Delay 
     cf2:	80 91 93 00 	lds	r24, 0x0093
     cf6:	91 e0       	ldi	r25, 0x01	; 1
     cf8:	98 0f       	add	r25, r24
     cfa:	90 93 93 00 	sts	0x0093, r25
     cfe:	84 31       	cpi	r24, 0x14	; 20
     d00:	38 f0       	brcs	.+14     	; 0xd10 <task_ACS+0xb0>
							acs_state=ACS_STATE_SEND_LEFT;
     d02:	82 e0       	ldi	r24, 0x02	; 2
     d04:	80 93 6b 00 	sts	0x006B, r24
     d08:	03 c0       	rjmp	.+6      	; 0xd10 <task_ACS+0xb0>
					}
					else
						TIMSK |= (1 << OCIE2);
     d0a:	89 b7       	in	r24, 0x39	; 57
     d0c:	80 68       	ori	r24, 0x80	; 128
     d0e:	89 bf       	out	0x39, r24	; 57
					if(sysStatACS.rc5_data_received) { // RC5 data received? 
     d10:	80 91 a9 00 	lds	r24, 0x00A9
     d14:	83 ff       	sbrs	r24, 3
     d16:	ce c0       	rjmp	.+412    	; 0xeb4 <task_ACS+0x254>
						IRCOMM_RC5dataReadyHandler(IRCOMM_RC5_data_ok); // Call handler
     d18:	e0 91 69 00 	lds	r30, 0x0069
     d1c:	f0 91 6a 00 	lds	r31, 0x006A
     d20:	80 91 02 01 	lds	r24, 0x0102
     d24:	90 91 03 01 	lds	r25, 0x0103
     d28:	09 95       	icall
						IRCOMM_RC5_data	= IRCOMM_RC5_data_ok;
     d2a:	80 91 02 01 	lds	r24, 0x0102
     d2e:	90 91 03 01 	lds	r25, 0x0103
     d32:	90 93 b2 00 	sts	0x00B2, r25
     d36:	80 93 b1 00 	sts	0x00B1, r24
						IRCOMM_RC5_data_ok.data = 0;
     d3a:	10 92 03 01 	sts	0x0103, r1
     d3e:	10 92 02 01 	sts	0x0102, r1
						sysStatACS.rc5_data_received = false;
     d42:	80 91 a9 00 	lds	r24, 0x00A9
     d46:	87 7f       	andi	r24, 0xF7	; 247
     d48:	80 93 a9 00 	sts	0x00A9, r24
     d4c:	b3 c0       	rjmp	.+358    	; 0xeb4 <task_ACS+0x254>
					}
				break;
				case ACS_STATE_SEND_LEFT:  // Prepare left channel:
					TIMSK &= ~(1 << OCIE2);
     d4e:	89 b7       	in	r24, 0x39	; 57
     d50:	8f 77       	andi	r24, 0x7F	; 127
     d52:	89 bf       	out	0x39, r24	; 57
					IRCOMM_OFF();
     d54:	97 98       	cbi	0x12, 7	; 18
					PORTB |= ACS_L;
     d56:	c6 9a       	sbi	0x18, 6	; 24
					PORTC |= ACS_R;
     d58:	af 9a       	sbi	0x15, 7	; 21
					acs_pulse = 0;
     d5a:	10 92 ae 00 	sts	0x00AE, r1
					acs_event_counter = 0;
     d5e:	10 92 fe 00 	sts	0x00FE, r1
					acs_detect_timeout = 0;
     d62:	10 92 92 00 	sts	0x0092, r1
     d66:	10 92 91 00 	sts	0x0091, r1
					sysStatACS.channel = ACS_CHANNEL_LEFT;
     d6a:	80 91 a9 00 	lds	r24, 0x00A9
					sysStatACS.acs_go = true;
     d6e:	8e 7f       	andi	r24, 0xFE	; 254
     d70:	80 62       	ori	r24, 0x20	; 32
     d72:	80 93 a9 00 	sts	0x00A9, r24
					acs_counter = 3; 
     d76:	83 e0       	ldi	r24, 0x03	; 3
     d78:	80 93 93 00 	sts	0x0093, r24
     d7c:	77 c0       	rjmp	.+238    	; 0xe6c <task_ACS+0x20c>
					acs_state = ACS_STATE_WAIT_LEFT;
				break;
				case ACS_STATE_WAIT_LEFT: // Wait for reception of IR pulses from Left channel
					if(!acs_pulse && acs_counter++ > 2) { 
     d7e:	80 91 ae 00 	lds	r24, 0x00AE
     d82:	81 11       	cpse	r24, r1
     d84:	10 c0       	rjmp	.+32     	; 0xda6 <task_ACS+0x146>
     d86:	80 91 93 00 	lds	r24, 0x0093
     d8a:	91 e0       	ldi	r25, 0x01	; 1
     d8c:	98 0f       	add	r25, r24
     d8e:	90 93 93 00 	sts	0x0093, r25
     d92:	83 30       	cpi	r24, 0x03	; 3
     d94:	40 f0       	brcs	.+16     	; 0xda6 <task_ACS+0x146>
						TIMSK |= (1 << OCIE2); 
     d96:	89 b7       	in	r24, 0x39	; 57
     d98:	80 68       	ori	r24, 0x80	; 128
     d9a:	89 bf       	out	0x39, r24	; 57
						acs_pulse = ACS_SEND_PULSES_LEFT;  // Send pulses! 
     d9c:	88 e2       	ldi	r24, 0x28	; 40
     d9e:	80 93 ae 00 	sts	0x00AE, r24
						acs_counter = 0;
     da2:	10 92 93 00 	sts	0x0093, r1
					}
					if(obstacle_left && acs_event_counter >= ACS_REC_PULSES_LEFT_THRESHOLD) {
     da6:	80 91 df 00 	lds	r24, 0x00DF
     daa:	88 23       	and	r24, r24
     dac:	21 f0       	breq	.+8      	; 0xdb6 <task_ACS+0x156>
     dae:	80 91 fe 00 	lds	r24, 0x00FE
     db2:	82 30       	cpi	r24, 0x02	; 2
     db4:	20 f4       	brcc	.+8      	; 0xdbe <task_ACS+0x15e>
						acs_event_counter = 0;
						obstacle_left = true;
						acs_state = ACS_STATE_SEND_RIGHT;
					}
					else if(acs_event_counter >= ACS_REC_PULSES_LEFT) { // receive min. ACS_REC_PULSES_LEFT pulses  
     db6:	80 91 fe 00 	lds	r24, 0x00FE
     dba:	86 30       	cpi	r24, 0x06	; 6
     dbc:	38 f0       	brcs	.+14     	; 0xdcc <task_ACS+0x16c>
						acs_event_counter = 0;
     dbe:	10 92 fe 00 	sts	0x00FE, r1
						obstacle_left = true;
     dc2:	81 e0       	ldi	r24, 0x01	; 1
     dc4:	80 93 df 00 	sts	0x00DF, r24
						acs_state = ACS_STATE_SEND_RIGHT;
     dc8:	85 e0       	ldi	r24, 0x05	; 5
     dca:	50 c0       	rjmp	.+160    	; 0xe6c <task_ACS+0x20c>
					}
					else if(acs_detect_timeout++ >= ACS_TIMEOUT_LEFT) { // Timeout?
     dcc:	80 91 91 00 	lds	r24, 0x0091
     dd0:	90 91 92 00 	lds	r25, 0x0092
     dd4:	9c 01       	movw	r18, r24
     dd6:	2f 5f       	subi	r18, 0xFF	; 255
     dd8:	3f 4f       	sbci	r19, 0xFF	; 255
     dda:	30 93 92 00 	sts	0x0092, r19
     dde:	20 93 91 00 	sts	0x0091, r18
     de2:	0e 97       	sbiw	r24, 0x0e	; 14
     de4:	08 f4       	brcc	.+2      	; 0xde8 <task_ACS+0x188>
     de6:	66 c0       	rjmp	.+204    	; 0xeb4 <task_ACS+0x254>
						obstacle_left = false;
     de8:	10 92 df 00 	sts	0x00DF, r1
						acs_state = ACS_STATE_SEND_RIGHT;
     dec:	85 e0       	ldi	r24, 0x05	; 5
     dee:	51 c0       	rjmp	.+162    	; 0xe92 <task_ACS+0x232>
						PORTC |= ACS_R;
						acs_pulse = 0;
					}
				break;
				case ACS_STATE_SEND_RIGHT:   // Prepare right channel:
					TIMSK &= ~(1 << OCIE2);
     df0:	89 b7       	in	r24, 0x39	; 57
     df2:	8f 77       	andi	r24, 0x7F	; 127
     df4:	89 bf       	out	0x39, r24	; 57
					IRCOMM_OFF();
     df6:	97 98       	cbi	0x12, 7	; 18
					PORTB |= ACS_L;
     df8:	c6 9a       	sbi	0x18, 6	; 24
					PORTC |= ACS_R;
     dfa:	af 9a       	sbi	0x15, 7	; 21
					acs_pulse = 0;
     dfc:	10 92 ae 00 	sts	0x00AE, r1
					acs_event_counter = 0;
     e00:	10 92 fe 00 	sts	0x00FE, r1
					acs_detect_timeout = 0;
     e04:	10 92 92 00 	sts	0x0092, r1
     e08:	10 92 91 00 	sts	0x0091, r1
					sysStatACS.channel = ACS_CHANNEL_RIGHT;
     e0c:	80 91 a9 00 	lds	r24, 0x00A9
					sysStatACS.acs_go = true;
     e10:	81 60       	ori	r24, 0x01	; 1
     e12:	80 62       	ori	r24, 0x20	; 32
     e14:	80 93 a9 00 	sts	0x00A9, r24
					acs_counter = 3;
     e18:	83 e0       	ldi	r24, 0x03	; 3
     e1a:	80 93 93 00 	sts	0x0093, r24
					acs_state = ACS_STATE_WAIT_RIGHT;
     e1e:	86 e0       	ldi	r24, 0x06	; 6
     e20:	25 c0       	rjmp	.+74     	; 0xe6c <task_ACS+0x20c>
				break;
				case ACS_STATE_WAIT_RIGHT:  // Wait for reception of IR pulses
					if(!acs_pulse && acs_counter++ > 2) { 
     e22:	80 91 ae 00 	lds	r24, 0x00AE
     e26:	81 11       	cpse	r24, r1
     e28:	10 c0       	rjmp	.+32     	; 0xe4a <task_ACS+0x1ea>
     e2a:	80 91 93 00 	lds	r24, 0x0093
     e2e:	91 e0       	ldi	r25, 0x01	; 1
     e30:	98 0f       	add	r25, r24
     e32:	90 93 93 00 	sts	0x0093, r25
     e36:	83 30       	cpi	r24, 0x03	; 3
     e38:	40 f0       	brcs	.+16     	; 0xe4a <task_ACS+0x1ea>
						TIMSK |= (1 << OCIE2);
     e3a:	89 b7       	in	r24, 0x39	; 57
     e3c:	80 68       	ori	r24, 0x80	; 128
     e3e:	89 bf       	out	0x39, r24	; 57
						acs_pulse = ACS_SEND_PULSES_RIGHT; 	// Send pulses!
     e40:	88 e2       	ldi	r24, 0x28	; 40
     e42:	80 93 ae 00 	sts	0x00AE, r24
						acs_counter = 0;
     e46:	10 92 93 00 	sts	0x0093, r1
					}
					if(obstacle_right && acs_event_counter >= ACS_REC_PULSES_RIGHT_THRESHOLD) {
     e4a:	80 91 e8 00 	lds	r24, 0x00E8
     e4e:	88 23       	and	r24, r24
     e50:	21 f0       	breq	.+8      	; 0xe5a <task_ACS+0x1fa>
     e52:	80 91 fe 00 	lds	r24, 0x00FE
     e56:	82 30       	cpi	r24, 0x02	; 2
     e58:	20 f4       	brcc	.+8      	; 0xe62 <task_ACS+0x202>
						acs_event_counter = 0;
						obstacle_right = true;
						acs_state = ACS_STATE_IRCOMM_DELAY;
					}
					else if(acs_event_counter >= ACS_REC_PULSES_RIGHT) { // receive min. ACS_REC_PULSES_RIGHT pulses
     e5a:	80 91 fe 00 	lds	r24, 0x00FE
     e5e:	86 30       	cpi	r24, 0x06	; 6
     e60:	40 f0       	brcs	.+16     	; 0xe72 <task_ACS+0x212>
						acs_event_counter = 0;
     e62:	10 92 fe 00 	sts	0x00FE, r1
						obstacle_right = true;
     e66:	81 e0       	ldi	r24, 0x01	; 1
     e68:	80 93 e8 00 	sts	0x00E8, r24
						acs_state = ACS_STATE_IRCOMM_DELAY;
     e6c:	80 93 6b 00 	sts	0x006B, r24
     e70:	21 c0       	rjmp	.+66     	; 0xeb4 <task_ACS+0x254>
					}
					else if(acs_detect_timeout++ >= ACS_TIMEOUT_RIGHT) { // Timeout?
     e72:	80 91 91 00 	lds	r24, 0x0091
     e76:	90 91 92 00 	lds	r25, 0x0092
     e7a:	9c 01       	movw	r18, r24
     e7c:	2f 5f       	subi	r18, 0xFF	; 255
     e7e:	3f 4f       	sbci	r19, 0xFF	; 255
     e80:	30 93 92 00 	sts	0x0092, r19
     e84:	20 93 91 00 	sts	0x0091, r18
     e88:	0e 97       	sbiw	r24, 0x0e	; 14
     e8a:	a0 f0       	brcs	.+40     	; 0xeb4 <task_ACS+0x254>
						obstacle_right = false;
     e8c:	10 92 e8 00 	sts	0x00E8, r1
						acs_state = ACS_STATE_IRCOMM_DELAY;
     e90:	81 e0       	ldi	r24, 0x01	; 1
     e92:	80 93 6b 00 	sts	0x006B, r24
						TIMSK &= ~(1 << OCIE2);
     e96:	89 b7       	in	r24, 0x39	; 57
     e98:	8f 77       	andi	r24, 0x7F	; 127
     e9a:	89 bf       	out	0x39, r24	; 57
						IRCOMM_OFF();
     e9c:	97 98       	cbi	0x12, 7	; 18
						PORTB |= ACS_L;
     e9e:	c6 9a       	sbi	0x18, 6	; 24
						PORTC |= ACS_R;
     ea0:	af 9a       	sbi	0x15, 7	; 21
						acs_pulse = 0;
     ea2:	10 92 ae 00 	sts	0x00AE, r1
     ea6:	06 c0       	rjmp	.+12     	; 0xeb4 <task_ACS+0x254>
					}
				break;
			}
		}
		else { // RC5 reception detected...
			acs_detect_timeout = 0;
     ea8:	10 92 92 00 	sts	0x0092, r1
     eac:	10 92 91 00 	sts	0x0091, r1
			acs_counter = 0;
     eb0:	10 92 93 00 	sts	0x0093, r1
		}
		
		// Check for changes and call event handler if necessary:
		static uint8_t acs_l_tmp;
		static uint8_t acs_r_tmp;
		if(acs_l_tmp != obstacle_left || acs_r_tmp != obstacle_right) { // Did the ACS Status change?
     eb4:	90 91 df 00 	lds	r25, 0x00DF
     eb8:	20 91 90 00 	lds	r18, 0x0090
     ebc:	80 91 e8 00 	lds	r24, 0x00E8
     ec0:	29 13       	cpse	r18, r25
     ec2:	04 c0       	rjmp	.+8      	; 0xecc <task_ACS+0x26c>
     ec4:	20 91 8f 00 	lds	r18, 0x008F
     ec8:	28 17       	cp	r18, r24
     eca:	49 f0       	breq	.+18     	; 0xede <task_ACS+0x27e>
			acs_l_tmp = obstacle_left;   // Yes, update and call event handler...
     ecc:	90 93 90 00 	sts	0x0090, r25
			acs_r_tmp = obstacle_right;
     ed0:	80 93 8f 00 	sts	0x008F, r24
			ACS_stateChangedHandler();
     ed4:	e0 91 67 00 	lds	r30, 0x0067
     ed8:	f0 91 68 00 	lds	r31, 0x0068
     edc:	09 95       	icall
		}
		acs_timer = 0;
     ede:	10 92 c2 00 	sts	0x00C2, r1
     ee2:	10 92 c1 00 	sts	0x00C1, r1
     ee6:	08 95       	ret

00000ee8 <disableACS>:
 * Disables the ACS task.
 * ACS and IRCOMM Transmissions/Receptions will not work anymore.
 */
void disableACS(void)
{
	acs_state = ACS_STATE_IDLE;
     ee8:	10 92 6b 00 	sts	0x006B, r1
	TIMSK &= ~(1 << OCIE2);
     eec:	89 b7       	in	r24, 0x39	; 57
     eee:	8f 77       	andi	r24, 0x7F	; 127
     ef0:	89 bf       	out	0x39, r24	; 57
	IRCOMM_OFF();
     ef2:	97 98       	cbi	0x12, 7	; 18
	PORTB |= ACS_L;
     ef4:	c6 9a       	sbi	0x18, 6	; 24
	PORTC |= ACS_R;
     ef6:	af 9a       	sbi	0x15, 7	; 21
	obstacle_right = false;
     ef8:	10 92 e8 00 	sts	0x00E8, r1
	obstacle_left = false;
     efc:	10 92 df 00 	sts	0x00DF, r1
     f00:	08 95       	ret

00000f02 <enableACS>:
/**
 * Enables the ACS task.
 */
void enableACS(void)
{
	TIMSK &= ~(1 << OCIE2);
     f02:	89 b7       	in	r24, 0x39	; 57
     f04:	8f 77       	andi	r24, 0x7F	; 127
     f06:	89 bf       	out	0x39, r24	; 57
	IRCOMM_OFF();
     f08:	97 98       	cbi	0x12, 7	; 18
	PORTB |= ACS_L;
     f0a:	c6 9a       	sbi	0x18, 6	; 24
	PORTC |= ACS_R;
     f0c:	af 9a       	sbi	0x15, 7	; 21
	obstacle_right = false;
     f0e:	10 92 e8 00 	sts	0x00E8, r1
	obstacle_left = false;
     f12:	10 92 df 00 	sts	0x00DF, r1
	acs_state = ACS_STATE_IRCOMM_DELAY;
     f16:	81 e0       	ldi	r24, 0x01	; 1
     f18:	80 93 6b 00 	sts	0x006B, r24
     f1c:	08 95       	ret

00000f1e <setACSPwrOff>:
 *			setACSPwrOff();
 *
 */
void setACSPwrOff(void)
{
	DDRD &= ~ACS_PWR;
     f1e:	8e 98       	cbi	0x11, 6	; 17
	PORTD &= ~ACS_PWR;
     f20:	96 98       	cbi	0x12, 6	; 18
	DDRB &= ~ACS_PWRH;
     f22:	bb 98       	cbi	0x17, 3	; 23
	PORTB &= ~ACS_PWRH;
     f24:	c3 98       	cbi	0x18, 3	; 24
	PORTB &= ~ACS_L;
     f26:	c6 98       	cbi	0x18, 6	; 24
	PORTC &= ~ACS_R;
     f28:	af 98       	cbi	0x15, 7	; 21
     f2a:	08 95       	ret

00000f2c <setACSPwrLow>:
 *			setACSPwrLow();
 *
 */
void setACSPwrLow(void)
{
	DDRD |= ACS_PWR;
     f2c:	8e 9a       	sbi	0x11, 6	; 17
	PORTD |= ACS_PWR;
     f2e:	96 9a       	sbi	0x12, 6	; 18
	DDRB &= ~ACS_PWRH;
     f30:	bb 98       	cbi	0x17, 3	; 23
	PORTB &= ~ACS_PWRH;
     f32:	c3 98       	cbi	0x18, 3	; 24
     f34:	08 95       	ret

00000f36 <setACSPwrMed>:
 *			setACSPwrMed();
 *
 */
void setACSPwrMed(void)
{
	DDRD &= ~ACS_PWR;
     f36:	8e 98       	cbi	0x11, 6	; 17
	PORTD &= ~ACS_PWR;
     f38:	96 98       	cbi	0x12, 6	; 18
	DDRB |= ACS_PWRH;
     f3a:	bb 9a       	sbi	0x17, 3	; 23
	PORTB |= ACS_PWRH;
     f3c:	c3 9a       	sbi	0x18, 3	; 24
     f3e:	08 95       	ret

00000f40 <setACSPwrHigh>:
 *			setACSPwrHigh();
 *
 */
void setACSPwrHigh(void)
{
	DDRD |= ACS_PWR;
     f40:	8e 9a       	sbi	0x11, 6	; 17
	PORTD |= ACS_PWR;
     f42:	96 9a       	sbi	0x12, 6	; 18
	DDRB |= ACS_PWRH;
     f44:	bb 9a       	sbi	0x17, 3	; 23
	PORTB |= ACS_PWRH;
     f46:	c3 9a       	sbi	0x18, 3	; 24
     f48:	08 95       	ret

00000f4a <powerON>:
/*****************************************************************************/
// 

void powerON(void) 
{ 
	PORTB |= PWRON;
     f4a:	c4 9a       	sbi	0x18, 4	; 24
	#ifdef POWER_ON_WARNING
		if(leds_on < 4)
     f4c:	80 91 b4 00 	lds	r24, 0x00B4
     f50:	84 30       	cpi	r24, 0x04	; 4
     f52:	18 f4       	brcc	.+6      	; 0xf5a <powerON+0x10>
			leds_on = 3;
     f54:	83 e0       	ldi	r24, 0x03	; 3
     f56:	80 93 b4 00 	sts	0x00B4, r24
     f5a:	08 95       	ret

00000f5c <powerOFF>:
	#endif
}

void powerOFF(void)
{
	PORTB &= ~PWRON;
     f5c:	c4 98       	cbi	0x18, 4	; 24
	#ifdef POWER_ON_WARNING
		if(leds_on < 4)
     f5e:	80 91 b4 00 	lds	r24, 0x00B4
     f62:	84 30       	cpi	r24, 0x04	; 4
     f64:	60 f4       	brcc	.+24     	; 0xf7e <powerOFF+0x22>
			leds_on = (leds_on ? 1 : (statusLEDs.byte && 1));
     f66:	81 11       	cpse	r24, r1
     f68:	07 c0       	rjmp	.+14     	; 0xf78 <powerOFF+0x1c>
     f6a:	81 e0       	ldi	r24, 0x01	; 1
     f6c:	90 91 9f 00 	lds	r25, 0x009F
     f70:	91 11       	cpse	r25, r1
     f72:	03 c0       	rjmp	.+6      	; 0xf7a <powerOFF+0x1e>
     f74:	80 e0       	ldi	r24, 0x00	; 0
     f76:	01 c0       	rjmp	.+2      	; 0xf7a <powerOFF+0x1e>
     f78:	81 e0       	ldi	r24, 0x01	; 1
     f7a:	80 93 b4 00 	sts	0x00B4, r24
     f7e:	08 95       	ret

00000f80 <__vector_10>:
 *
 * By default, it runs at 10kHz which means this ISR is called
 * every ~100s! This is nice for all kinds of timing stuff!
 */
ISR (TIMER0_COMP_vect)
{
     f80:	1f 92       	push	r1
     f82:	0f 92       	push	r0
     f84:	0f b6       	in	r0, 0x3f	; 63
     f86:	0f 92       	push	r0
     f88:	11 24       	eor	r1, r1
     f8a:	2f 93       	push	r18
     f8c:	3f 93       	push	r19
     f8e:	4f 93       	push	r20
     f90:	5f 93       	push	r21
     f92:	6f 93       	push	r22
     f94:	7f 93       	push	r23
     f96:	8f 93       	push	r24
     f98:	9f 93       	push	r25
     f9a:	af 93       	push	r26
     f9c:	bf 93       	push	r27
	#ifdef POWER_ON_WARNING
		static uint16_t leds_on_timer = 0;
	#endif
	
	// 16bit timer (100s resolution)
	timer++;
     f9e:	80 91 9c 00 	lds	r24, 0x009C
     fa2:	90 91 9d 00 	lds	r25, 0x009D
     fa6:	01 96       	adiw	r24, 0x01	; 1
     fa8:	90 93 9d 00 	sts	0x009D, r25
     fac:	80 93 9c 00 	sts	0x009C, r24
	
	// Blocking delay (100s):
	delay_timer++;
     fb0:	80 91 f5 00 	lds	r24, 0x00F5
     fb4:	8f 5f       	subi	r24, 0xFF	; 255
     fb6:	80 93 f5 00 	sts	0x00F5, r24
	
	// All 1ms based timing stuff
	if(ms_timer++ >= 9) { // 10 * 100s = 1ms, >= 9 because 0..9 = 10 counts
     fba:	80 91 f8 00 	lds	r24, 0x00F8
     fbe:	91 e0       	ldi	r25, 0x01	; 1
     fc0:	98 0f       	add	r25, r24
     fc2:	90 93 f8 00 	sts	0x00F8, r25
     fc6:	89 30       	cpi	r24, 0x09	; 9
     fc8:	08 f4       	brcc	.+2      	; 0xfcc <__vector_10+0x4c>
     fca:	47 c1       	rjmp	.+654    	; 0x125a <__vector_10+0x2da>
		// 16bit Stopwatches:
		if(stopwatches.watches & STOPWATCH1)
     fcc:	80 91 cd 00 	lds	r24, 0x00CD
     fd0:	80 ff       	sbrs	r24, 0
     fd2:	09 c0       	rjmp	.+18     	; 0xfe6 <__vector_10+0x66>
			stopwatches.watch1++;
     fd4:	80 91 ce 00 	lds	r24, 0x00CE
     fd8:	90 91 cf 00 	lds	r25, 0x00CF
     fdc:	01 96       	adiw	r24, 0x01	; 1
     fde:	90 93 cf 00 	sts	0x00CF, r25
     fe2:	80 93 ce 00 	sts	0x00CE, r24
		if(stopwatches.watches & STOPWATCH2)
     fe6:	80 91 cd 00 	lds	r24, 0x00CD
     fea:	81 ff       	sbrs	r24, 1
     fec:	09 c0       	rjmp	.+18     	; 0x1000 <__vector_10+0x80>
			stopwatches.watch2++;
     fee:	80 91 d0 00 	lds	r24, 0x00D0
     ff2:	90 91 d1 00 	lds	r25, 0x00D1
     ff6:	01 96       	adiw	r24, 0x01	; 1
     ff8:	90 93 d1 00 	sts	0x00D1, r25
     ffc:	80 93 d0 00 	sts	0x00D0, r24
		if(stopwatches.watches & STOPWATCH3)
    1000:	80 91 cd 00 	lds	r24, 0x00CD
    1004:	82 ff       	sbrs	r24, 2
    1006:	09 c0       	rjmp	.+18     	; 0x101a <__vector_10+0x9a>
			stopwatches.watch3++;
    1008:	80 91 d2 00 	lds	r24, 0x00D2
    100c:	90 91 d3 00 	lds	r25, 0x00D3
    1010:	01 96       	adiw	r24, 0x01	; 1
    1012:	90 93 d3 00 	sts	0x00D3, r25
    1016:	80 93 d2 00 	sts	0x00D2, r24
		if(stopwatches.watches & STOPWATCH4)
    101a:	80 91 cd 00 	lds	r24, 0x00CD
    101e:	83 ff       	sbrs	r24, 3
    1020:	09 c0       	rjmp	.+18     	; 0x1034 <__vector_10+0xb4>
			stopwatches.watch4++;
    1022:	80 91 d4 00 	lds	r24, 0x00D4
    1026:	90 91 d5 00 	lds	r25, 0x00D5
    102a:	01 96       	adiw	r24, 0x01	; 1
    102c:	90 93 d5 00 	sts	0x00D5, r25
    1030:	80 93 d4 00 	sts	0x00D4, r24
		if(stopwatches.watches & STOPWATCH5)
    1034:	80 91 cd 00 	lds	r24, 0x00CD
    1038:	84 ff       	sbrs	r24, 4
    103a:	09 c0       	rjmp	.+18     	; 0x104e <__vector_10+0xce>
			stopwatches.watch5++;
    103c:	80 91 d6 00 	lds	r24, 0x00D6
    1040:	90 91 d7 00 	lds	r25, 0x00D7
    1044:	01 96       	adiw	r24, 0x01	; 1
    1046:	90 93 d7 00 	sts	0x00D7, r25
    104a:	80 93 d6 00 	sts	0x00D6, r24
		if(stopwatches.watches & STOPWATCH6)
    104e:	80 91 cd 00 	lds	r24, 0x00CD
    1052:	85 ff       	sbrs	r24, 5
    1054:	09 c0       	rjmp	.+18     	; 0x1068 <__vector_10+0xe8>
			stopwatches.watch6++;
    1056:	80 91 d8 00 	lds	r24, 0x00D8
    105a:	90 91 d9 00 	lds	r25, 0x00D9
    105e:	01 96       	adiw	r24, 0x01	; 1
    1060:	90 93 d9 00 	sts	0x00D9, r25
    1064:	80 93 d8 00 	sts	0x00D8, r24
		if(stopwatches.watches & STOPWATCH7)
    1068:	80 91 cd 00 	lds	r24, 0x00CD
    106c:	86 ff       	sbrs	r24, 6
    106e:	09 c0       	rjmp	.+18     	; 0x1082 <__vector_10+0x102>
			stopwatches.watch7++;
    1070:	80 91 da 00 	lds	r24, 0x00DA
    1074:	90 91 db 00 	lds	r25, 0x00DB
    1078:	01 96       	adiw	r24, 0x01	; 1
    107a:	90 93 db 00 	sts	0x00DB, r25
    107e:	80 93 da 00 	sts	0x00DA, r24
		if(stopwatches.watches & STOPWATCH8)
    1082:	80 91 cd 00 	lds	r24, 0x00CD
    1086:	87 ff       	sbrs	r24, 7
    1088:	09 c0       	rjmp	.+18     	; 0x109c <__vector_10+0x11c>
			stopwatches.watch8++;
    108a:	80 91 dc 00 	lds	r24, 0x00DC
    108e:	90 91 dd 00 	lds	r25, 0x00DD
    1092:	01 96       	adiw	r24, 0x01	; 1
    1094:	90 93 dd 00 	sts	0x00DD, r25
    1098:	80 93 dc 00 	sts	0x00DC, r24

		// Speed measurement timer
		if(speed_timer++ > SPEED_TIMER_BASE) {
    109c:	80 91 e9 00 	lds	r24, 0x00E9
    10a0:	91 e0       	ldi	r25, 0x01	; 1
    10a2:	98 0f       	add	r25, r24
    10a4:	90 93 e9 00 	sts	0x00E9, r25
    10a8:	89 3c       	cpi	r24, 0xC9	; 201
    10aa:	e8 f0       	brcs	.+58     	; 0x10e6 <__vector_10+0x166>
			mright_speed = mright_counter;
    10ac:	80 91 c7 00 	lds	r24, 0x00C7
    10b0:	90 91 c8 00 	lds	r25, 0x00C8
    10b4:	90 93 fa 00 	sts	0x00FA, r25
    10b8:	80 93 f9 00 	sts	0x00F9, r24
			mleft_speed = mleft_counter;
    10bc:	80 91 f1 00 	lds	r24, 0x00F1
    10c0:	90 91 f2 00 	lds	r25, 0x00F2
    10c4:	90 93 b8 00 	sts	0x00B8, r25
    10c8:	80 93 b7 00 	sts	0x00B7, r24
			mright_counter = 0;
    10cc:	10 92 c8 00 	sts	0x00C8, r1
    10d0:	10 92 c7 00 	sts	0x00C7, r1
			mleft_counter = 0;
    10d4:	10 92 f2 00 	sts	0x00F2, r1
    10d8:	10 92 f1 00 	sts	0x00F1, r1
			motor_control = true;
    10dc:	81 e0       	ldi	r24, 0x01	; 1
    10de:	80 93 b3 00 	sts	0x00B3, r24
			speed_timer = 0;
    10e2:	10 92 e9 00 	sts	0x00E9, r1
		}
		
		// Power on LED flashing:
		#ifdef POWER_ON_WARNING
			if(leds_on < 3) {
    10e6:	40 91 b4 00 	lds	r20, 0x00B4
    10ea:	43 30       	cpi	r20, 0x03	; 3
    10ec:	08 f0       	brcs	.+2      	; 0x10f0 <__vector_10+0x170>
    10ee:	52 c0       	rjmp	.+164    	; 0x1194 <__vector_10+0x214>
				if(leds_on == 2) {
    10f0:	42 30       	cpi	r20, 0x02	; 2
    10f2:	81 f5       	brne	.+96     	; 0x1154 <__vector_10+0x1d4>
					if(!statusLEDs.byte) {
    10f4:	80 91 9f 00 	lds	r24, 0x009F
    10f8:	81 11       	cpse	r24, r1
    10fa:	20 c0       	rjmp	.+64     	; 0x113c <__vector_10+0x1bc>
						if(leds_on_timer++ % 200 == 0) {
    10fc:	80 91 8d 00 	lds	r24, 0x008D
    1100:	90 91 8e 00 	lds	r25, 0x008E
    1104:	9c 01       	movw	r18, r24
    1106:	2f 5f       	subi	r18, 0xFF	; 255
    1108:	3f 4f       	sbci	r19, 0xFF	; 255
    110a:	30 93 8e 00 	sts	0x008E, r19
    110e:	20 93 8d 00 	sts	0x008D, r18
    1112:	68 ec       	ldi	r22, 0xC8	; 200
    1114:	70 e0       	ldi	r23, 0x00	; 0
    1116:	0e 94 1f 10 	call	0x203e	; 0x203e <__udivmodhi4>
    111a:	89 2b       	or	r24, r25
    111c:	d9 f5       	brne	.+118    	; 0x1194 <__vector_10+0x214>
							if(leds_on_timer > POWER_ON_SHOW_TIME) {
    111e:	21 3a       	cpi	r18, 0xA1	; 161
    1120:	3f 40       	sbci	r19, 0x0F	; 15
    1122:	28 f0       	brcs	.+10     	; 0x112e <__vector_10+0x1ae>
								DDRB &= ~SL5; 
    1124:	b9 98       	cbi	0x17, 1	; 23
								PORTB &= ~SL5;
    1126:	c1 98       	cbi	0x18, 1	; 24
								leds_on = 0;
    1128:	10 92 b4 00 	sts	0x00B4, r1
    112c:	29 c0       	rjmp	.+82     	; 0x1180 <__vector_10+0x200>
								leds_on_timer = 0;
							}
							else {
								DDRB ^= SL5; 
    112e:	87 b3       	in	r24, 0x17	; 23
    1130:	84 27       	eor	r24, r20
    1132:	87 bb       	out	0x17, r24	; 23
								PORTB ^= SL5;
    1134:	88 b3       	in	r24, 0x18	; 24
    1136:	84 27       	eor	r24, r20
    1138:	88 bb       	out	0x18, r24	; 24
    113a:	2c c0       	rjmp	.+88     	; 0x1194 <__vector_10+0x214>
							}
						}
					}
					else {
						if(!statusLEDs.LED5) {
    113c:	84 fd       	sbrc	r24, 4
    113e:	02 c0       	rjmp	.+4      	; 0x1144 <__vector_10+0x1c4>
							DDRB &= ~SL5; 
    1140:	b9 98       	cbi	0x17, 1	; 23
							PORTB &= ~SL5;
    1142:	c1 98       	cbi	0x18, 1	; 24
						}
						leds_on_timer = 0;
    1144:	10 92 8e 00 	sts	0x008E, r1
    1148:	10 92 8d 00 	sts	0x008D, r1
						leds_on = 1;
    114c:	81 e0       	ldi	r24, 0x01	; 1
    114e:	80 93 b4 00 	sts	0x00B4, r24
    1152:	20 c0       	rjmp	.+64     	; 0x1194 <__vector_10+0x214>
					}
				}
				else if(leds_on_timer > POWER_ON_WAIT_TIME) {
    1154:	80 91 8d 00 	lds	r24, 0x008D
    1158:	90 91 8e 00 	lds	r25, 0x008E
    115c:	81 3e       	cpi	r24, 0xE1	; 225
    115e:	2e e2       	ldi	r18, 0x2E	; 46
    1160:	92 07       	cpc	r25, r18
    1162:	98 f0       	brcs	.+38     	; 0x118a <__vector_10+0x20a>
					if(leds_on == 1) {
    1164:	41 30       	cpi	r20, 0x01	; 1
    1166:	49 f4       	brne	.+18     	; 0x117a <__vector_10+0x1fa>
						leds_on = 0;
    1168:	10 92 b4 00 	sts	0x00B4, r1
						if(!statusLEDs.LED5) {
    116c:	80 91 9f 00 	lds	r24, 0x009F
    1170:	84 fd       	sbrc	r24, 4
    1172:	06 c0       	rjmp	.+12     	; 0x1180 <__vector_10+0x200>
							DDRB &= ~SL5; 
    1174:	b9 98       	cbi	0x17, 1	; 23
							PORTB &= ~SL5;
    1176:	c1 98       	cbi	0x18, 1	; 24
    1178:	03 c0       	rjmp	.+6      	; 0x1180 <__vector_10+0x200>
						}
					}
					else 
						leds_on = 2;
    117a:	82 e0       	ldi	r24, 0x02	; 2
    117c:	80 93 b4 00 	sts	0x00B4, r24
					leds_on_timer = 0;
    1180:	10 92 8e 00 	sts	0x008E, r1
    1184:	10 92 8d 00 	sts	0x008D, r1
    1188:	05 c0       	rjmp	.+10     	; 0x1194 <__vector_10+0x214>
				}
				else
					leds_on_timer++;
    118a:	01 96       	adiw	r24, 0x01	; 1
    118c:	90 93 8e 00 	sts	0x008E, r25
    1190:	80 93 8d 00 	sts	0x008D, r24
			}
		#endif

		// ACS timer:
		if(acs_timer < (ACS_UPDATE_INTERVAL+1))
    1194:	80 91 c1 00 	lds	r24, 0x00C1
    1198:	90 91 c2 00 	lds	r25, 0x00C2
    119c:	03 97       	sbiw	r24, 0x03	; 3
    119e:	48 f4       	brcc	.+18     	; 0x11b2 <__vector_10+0x232>
			acs_timer++;	
    11a0:	80 91 c1 00 	lds	r24, 0x00C1
    11a4:	90 91 c2 00 	lds	r25, 0x00C2
    11a8:	01 96       	adiw	r24, 0x01	; 1
    11aa:	90 93 c2 00 	sts	0x00C2, r25
    11ae:	80 93 c1 00 	sts	0x00C1, r24

		// Overcurrent measurement timer
		if(overcurrent_timer < 55)
    11b2:	80 91 e1 00 	lds	r24, 0x00E1
    11b6:	87 33       	cpi	r24, 0x37	; 55
    11b8:	18 f4       	brcc	.+6      	; 0x11c0 <__vector_10+0x240>
			overcurrent_timer++;
    11ba:	8f 5f       	subi	r24, 0xFF	; 255
    11bc:	80 93 e1 00 	sts	0x00E1, r24
		
		// Bumper check timer
		if(bumper_timer < 52)
    11c0:	80 91 ec 00 	lds	r24, 0x00EC
    11c4:	84 33       	cpi	r24, 0x34	; 52
    11c6:	28 f4       	brcc	.+10     	; 0x11d2 <__vector_10+0x252>
			bumper_timer++;		
    11c8:	80 91 ec 00 	lds	r24, 0x00EC
    11cc:	8f 5f       	subi	r24, 0xFF	; 255
    11ce:	80 93 ec 00 	sts	0x00EC, r24
		
		// Soft PWM adjustment and automatic PWM shutdown if motor power is 0:
		if(speed_adjust_timer++ > 2) {
    11d2:	80 91 e7 00 	lds	r24, 0x00E7
    11d6:	91 e0       	ldi	r25, 0x01	; 1
    11d8:	98 0f       	add	r25, r24
    11da:	90 93 e7 00 	sts	0x00E7, r25
    11de:	83 30       	cpi	r24, 0x03	; 3
    11e0:	d0 f1       	brcs	.+116    	; 0x1256 <__vector_10+0x2d6>
			if(mright_ptmp != mright_power) {
    11e2:	40 91 e2 00 	lds	r20, 0x00E2
    11e6:	24 2f       	mov	r18, r20
    11e8:	30 e0       	ldi	r19, 0x00	; 0
    11ea:	80 91 c5 00 	lds	r24, 0x00C5
    11ee:	90 91 c6 00 	lds	r25, 0x00C6
    11f2:	28 17       	cp	r18, r24
    11f4:	39 07       	cpc	r19, r25
    11f6:	59 f0       	breq	.+22     	; 0x120e <__vector_10+0x28e>
				if(mright_ptmp < mright_power) 
    11f8:	28 17       	cp	r18, r24
    11fa:	39 07       	cpc	r19, r25
    11fc:	14 f4       	brge	.+4      	; 0x1202 <__vector_10+0x282>
					mright_ptmp++;
    11fe:	4f 5f       	subi	r20, 0xFF	; 255
    1200:	01 c0       	rjmp	.+2      	; 0x1204 <__vector_10+0x284>
				else 
					mright_ptmp--;
    1202:	41 50       	subi	r20, 0x01	; 1
    1204:	40 93 e2 00 	sts	0x00E2, r20
				OCR1AL = mright_ptmp;
    1208:	80 91 e2 00 	lds	r24, 0x00E2
    120c:	8a bd       	out	0x2a, r24	; 42
			}
			if(mleft_ptmp != mleft_power) {
    120e:	40 91 04 01 	lds	r20, 0x0104
    1212:	24 2f       	mov	r18, r20
    1214:	30 e0       	ldi	r19, 0x00	; 0
    1216:	80 91 b5 00 	lds	r24, 0x00B5
    121a:	90 91 b6 00 	lds	r25, 0x00B6
    121e:	28 17       	cp	r18, r24
    1220:	39 07       	cpc	r19, r25
    1222:	59 f0       	breq	.+22     	; 0x123a <__vector_10+0x2ba>
				if(mleft_ptmp < mleft_power) 
    1224:	28 17       	cp	r18, r24
    1226:	39 07       	cpc	r19, r25
    1228:	14 f4       	brge	.+4      	; 0x122e <__vector_10+0x2ae>
					mleft_ptmp++;
    122a:	4f 5f       	subi	r20, 0xFF	; 255
    122c:	01 c0       	rjmp	.+2      	; 0x1230 <__vector_10+0x2b0>
				else 
					mleft_ptmp--;
    122e:	41 50       	subi	r20, 0x01	; 1
    1230:	40 93 04 01 	sts	0x0104, r20
				OCR1BL = mleft_ptmp;
    1234:	80 91 04 01 	lds	r24, 0x0104
    1238:	88 bd       	out	0x28, r24	; 40
			}
			if(mleft_ptmp || mright_ptmp)
    123a:	80 91 04 01 	lds	r24, 0x0104
    123e:	81 11       	cpse	r24, r1
    1240:	04 c0       	rjmp	.+8      	; 0x124a <__vector_10+0x2ca>
    1242:	80 91 e2 00 	lds	r24, 0x00E2
    1246:	88 23       	and	r24, r24
    1248:	19 f0       	breq	.+6      	; 0x1250 <__vector_10+0x2d0>
				TCCR1A = (1 << WGM11) | (1 << COM1A1) | (1 << COM1B1);
    124a:	82 ea       	ldi	r24, 0xA2	; 162
    124c:	8f bd       	out	0x2f, r24	; 47
    124e:	01 c0       	rjmp	.+2      	; 0x1252 <__vector_10+0x2d2>
			else
				TCCR1A = 0;
    1250:	1f bc       	out	0x2f, r1	; 47
			speed_adjust_timer = 0;
    1252:	10 92 e7 00 	sts	0x00E7, r1
		}

		ms_timer = 0;
    1256:	10 92 f8 00 	sts	0x00F8, r1
	
	static uint8_t	IRCOMM_RC5_bit;		// bit value
	static uint8_t	IRCOMM_RC5_time;	// count bit time
	static uint16_t IRCOMM_RC5_tmp;		// shift bits in
	
	if((!sysStatACS.rc5_data_received)) {
    125a:	30 91 a9 00 	lds	r19, 0x00A9
    125e:	33 fd       	sbrc	r19, 3
    1260:	47 c0       	rjmp	.+142    	; 0x12f0 <__vector_10+0x370>
		uint16_t tmp = IRCOMM_RC5_tmp;
    1262:	80 91 8b 00 	lds	r24, 0x008B
    1266:	90 91 8c 00 	lds	r25, 0x008C
		if(++IRCOMM_RC5_time > RC5_PULSE_MAX) {				// count pulse time
    126a:	20 91 8a 00 	lds	r18, 0x008A
    126e:	2f 5f       	subi	r18, 0xFF	; 255
    1270:	20 93 8a 00 	sts	0x008A, r18
    1274:	26 31       	cpi	r18, 0x16	; 22
    1276:	98 f0       	brcs	.+38     	; 0x129e <__vector_10+0x31e>
			if(!(tmp & 0x4000) && (tmp & 0x2000)) {			// only 14 bits received?
    1278:	96 fd       	sbrc	r25, 6
    127a:	0a c0       	rjmp	.+20     	; 0x1290 <__vector_10+0x310>
    127c:	95 ff       	sbrs	r25, 5
    127e:	08 c0       	rjmp	.+16     	; 0x1290 <__vector_10+0x310>
				IRCOMM_RC5_data_ok.data = tmp;				// store result
    1280:	90 93 03 01 	sts	0x0103, r25
    1284:	80 93 02 01 	sts	0x0102, r24
				sysStatACS.rc5_data_received = true; // we have new data!
    1288:	83 2f       	mov	r24, r19
    128a:	88 60       	ori	r24, 0x08	; 8
    128c:	80 93 a9 00 	sts	0x00A9, r24
			}
			sysStatACS.detect_rc5 = false; // NO RC5! 
    1290:	80 91 a9 00 	lds	r24, 0x00A9
    1294:	8f 7e       	andi	r24, 0xEF	; 239
    1296:	80 93 a9 00 	sts	0x00A9, r24
			tmp = 0;
    129a:	80 e0       	ldi	r24, 0x00	; 0
    129c:	90 e0       	ldi	r25, 0x00	; 0
		}
		if ((IRCOMM_RC5_bit ^ PINB) & ACS) {				// change detect
    129e:	40 91 89 00 	lds	r20, 0x0089
    12a2:	36 b3       	in	r19, 0x16	; 22
    12a4:	34 27       	eor	r19, r20
    12a6:	32 ff       	sbrs	r19, 2
    12a8:	1f c0       	rjmp	.+62     	; 0x12e8 <__vector_10+0x368>
			IRCOMM_RC5_bit = ~IRCOMM_RC5_bit;				// 0x00 -> 0xFF -> 0x00
    12aa:	34 2f       	mov	r19, r20
    12ac:	30 95       	com	r19
    12ae:	30 93 89 00 	sts	0x0089, r19
			if(IRCOMM_RC5_time < RC5_PULSE_MIN)	{			// to short
    12b2:	27 30       	cpi	r18, 0x07	; 7
    12b4:	40 f4       	brcc	.+16     	; 0x12c6 <__vector_10+0x346>
				sysStatACS.detect_rc5 = false; // RC5 transmission detected! 
    12b6:	80 91 a9 00 	lds	r24, 0x00A9
    12ba:	8f 7e       	andi	r24, 0xEF	; 239
    12bc:	80 93 a9 00 	sts	0x00A9, r24
				tmp = 0;
    12c0:	80 e0       	ldi	r24, 0x00	; 0
    12c2:	90 e0       	ldi	r25, 0x00	; 0
    12c4:	04 c0       	rjmp	.+8      	; 0x12ce <__vector_10+0x34e>
			}
			if(!tmp || (IRCOMM_RC5_time > RC5_PULSE_1_2)) {	// start or long pulse time
    12c6:	00 97       	sbiw	r24, 0x00	; 0
    12c8:	11 f0       	breq	.+4      	; 0x12ce <__vector_10+0x34e>
    12ca:	2f 30       	cpi	r18, 0x0F	; 15
    12cc:	68 f0       	brcs	.+26     	; 0x12e8 <__vector_10+0x368>
				sysStatACS.detect_rc5 = true;
    12ce:	20 91 a9 00 	lds	r18, 0x00A9
    12d2:	20 61       	ori	r18, 0x10	; 16
    12d4:	20 93 a9 00 	sts	0x00A9, r18
				if(!(tmp & 0x4000))							// not to many bits
    12d8:	96 fd       	sbrc	r25, 6
    12da:	02 c0       	rjmp	.+4      	; 0x12e0 <__vector_10+0x360>
					tmp <<= 1;								// shift
    12dc:	88 0f       	add	r24, r24
    12de:	99 1f       	adc	r25, r25
				if(!(IRCOMM_RC5_bit & ACS))					// inverted bit
    12e0:	32 ff       	sbrs	r19, 2
					tmp |= 1;								// insert new bit
    12e2:	81 60       	ori	r24, 0x01	; 1
				IRCOMM_RC5_time = 0;						// count next pulse time
    12e4:	10 92 8a 00 	sts	0x008A, r1
			}
		}
		IRCOMM_RC5_tmp = tmp;	
    12e8:	90 93 8c 00 	sts	0x008C, r25
    12ec:	80 93 8b 00 	sts	0x008B, r24
		if(!isEncoderRight())
			cycle_l_r_tmp++;
		else 
			cycle_h_r_tmp++;
	#endif
}
    12f0:	bf 91       	pop	r27
    12f2:	af 91       	pop	r26
    12f4:	9f 91       	pop	r25
    12f6:	8f 91       	pop	r24
    12f8:	7f 91       	pop	r23
    12fa:	6f 91       	pop	r22
    12fc:	5f 91       	pop	r21
    12fe:	4f 91       	pop	r20
    1300:	3f 91       	pop	r19
    1302:	2f 91       	pop	r18
    1304:	0f 90       	pop	r0
    1306:	0f be       	out	0x3f, r0	; 63
    1308:	0f 90       	pop	r0
    130a:	1f 90       	pop	r1
    130c:	18 95       	reti

0000130e <sleep>:
 *		// The maximum delay is:
 *		sleep(255); // delay 255 * 100us = 25500us = 25.5ms
 */
void sleep(uint8_t time)
{
	for (delay_timer = 0; delay_timer < time;);
    130e:	10 92 f5 00 	sts	0x00F5, r1
    1312:	90 91 f5 00 	lds	r25, 0x00F5
    1316:	98 17       	cp	r25, r24
    1318:	e0 f3       	brcs	.-8      	; 0x1312 <sleep+0x4>
}
    131a:	08 95       	ret

0000131c <mSleep>:
 *      mSleep(100); // delay 100 * 1ms = 100ms = 0.1s
 *		mSleep(1000); // delay 1000 * 1ms = 1000ms = 1s
 *
 */
void mSleep(uint16_t time)
{
    131c:	cf 93       	push	r28
    131e:	df 93       	push	r29
    1320:	ec 01       	movw	r28, r24
	while (time--) sleep(10);
    1322:	20 97       	sbiw	r28, 0x00	; 0
    1324:	29 f0       	breq	.+10     	; 0x1330 <mSleep+0x14>
    1326:	8a e0       	ldi	r24, 0x0A	; 10
    1328:	0e 94 87 09 	call	0x130e	; 0x130e <sleep>
    132c:	21 97       	sbiw	r28, 0x01	; 1
    132e:	f9 cf       	rjmp	.-14     	; 0x1322 <mSleep+0x6>
}
    1330:	df 91       	pop	r29
    1332:	cf 91       	pop	r28
    1334:	08 95       	ret

00001336 <delayCycles>:
 * 	delayCycles(1000); // Delays for minimal 1000 instruction cycles
 *					   // (it will be a lot more...)
 */
void delayCycles(uint16_t dly)
{
	while(dly--) nop();
    1336:	01 97       	sbiw	r24, 0x01	; 1
    1338:	10 f0       	brcs	.+4      	; 0x133e <delayCycles+0x8>
    133a:	00 00       	nop
    133c:	fc cf       	rjmp	.-8      	; 0x1336 <delayCycles>
}
    133e:	08 95       	ret

00001340 <emergencyShutdown>:
 * called from task_motionControl (s. below) and outputs an error message and then stops
 * all operations to save the robot from damages that may occur if it continues
 * to drive around. 
 */
void emergencyShutdown(uint8_t why)
{
    1340:	c8 2f       	mov	r28, r24
	cli();
    1342:	f8 94       	cli
	IRCOMM_OFF();
    1344:	97 98       	cbi	0x12, 7	; 18
	setACSPwrOff();
    1346:	0e 94 8f 07 	call	0xf1e	; 0xf1e <setACSPwrOff>
	mleft_power = 0;
    134a:	10 92 b6 00 	sts	0x00B6, r1
    134e:	10 92 b5 00 	sts	0x00B5, r1
	mright_power = 0;
    1352:	10 92 c6 00 	sts	0x00C6, r1
    1356:	10 92 c5 00 	sts	0x00C5, r1
	left_i = 0;
    135a:	10 92 b0 00 	sts	0x00B0, r1
    135e:	10 92 af 00 	sts	0x00AF, r1
	right_i = 0;
    1362:	10 92 eb 00 	sts	0x00EB, r1
    1366:	10 92 ea 00 	sts	0x00EA, r1
	mleft_ptmp = 0;
    136a:	10 92 04 01 	sts	0x0104, r1
	mright_ptmp = 0;
    136e:	10 92 e2 00 	sts	0x00E2, r1
	OCR1AL = 0;
    1372:	1a bc       	out	0x2a, r1	; 42
	OCR1BL = 0;
    1374:	18 bc       	out	0x28, r1	; 40
	TCCR1A = 0;
    1376:	1f bc       	out	0x2f, r1	; 47
	powerOFF();
    1378:	0e 94 ae 07 	call	0xf5c	; 0xf5c <powerOFF>
#ifdef ENABLE_OC_ERROR_MESSAGE
	writeString_P("\n\n##### EMERGENCY SHUTDOWN #####\n");
    137c:	84 e1       	ldi	r24, 0x14	; 20
    137e:	93 e0       	ldi	r25, 0x03	; 3
    1380:	0e 94 99 0d 	call	0x1b32	; 0x1b32 <writeNStringP>
	writeString_P("##### ALL OPERATIONS STOPPED TO PREVENT ANY DAMAGE! #####\n");
    1384:	89 ed       	ldi	r24, 0xD9	; 217
    1386:	92 e0       	ldi	r25, 0x02	; 2
    1388:	0e 94 99 0d 	call	0x1b32	; 0x1b32 <writeNStringP>
	if(why == ENCODER_MALFUNCTION_LEFT || why == ENCODER_MALFUNCTION_RIGHT) {
    138c:	8f ef       	ldi	r24, 0xFF	; 255
    138e:	8c 0f       	add	r24, r28
    1390:	82 30       	cpi	r24, 0x02	; 2
    1392:	c0 f4       	brcc	.+48     	; 0x13c4 <emergencyShutdown+0x84>
		
		writeString_P("\n### ENCODER (OR MOTOR) MALFUNCTION! ###\n");
    1394:	8f ea       	ldi	r24, 0xAF	; 175
    1396:	92 e0       	ldi	r25, 0x02	; 2
    1398:	0e 94 99 0d 	call	0x1b32	; 0x1b32 <writeNStringP>
		writeString_P("Affected channel:"); 	
    139c:	8d e9       	ldi	r24, 0x9D	; 157
    139e:	92 e0       	ldi	r25, 0x02	; 2
    13a0:	0e 94 99 0d 	call	0x1b32	; 0x1b32 <writeNStringP>
		if(why == ENCODER_MALFUNCTION_LEFT)
    13a4:	c1 30       	cpi	r28, 0x01	; 1
    13a6:	19 f4       	brne	.+6      	; 0x13ae <emergencyShutdown+0x6e>
			writeString_P("LEFT");
    13a8:	88 e9       	ldi	r24, 0x98	; 152
    13aa:	92 e0       	ldi	r25, 0x02	; 2
    13ac:	02 c0       	rjmp	.+4      	; 0x13b2 <emergencyShutdown+0x72>
		else
			writeString_P("RIGHT");
    13ae:	82 e9       	ldi	r24, 0x92	; 146
    13b0:	92 e0       	ldi	r25, 0x02	; 2
    13b2:	0e 94 99 0d 	call	0x1b32	; 0x1b32 <writeNStringP>
		writeString_P("!\n\n(s. task_motorControl() function in RP6Lib!)\n");
    13b6:	81 e6       	ldi	r24, 0x61	; 97
    13b8:	92 e0       	ldi	r25, 0x02	; 2
    13ba:	0e 94 99 0d 	call	0x1b32	; 0x1b32 <writeNStringP>
		writeString_P("You need to check Encoder/Motor assembly (or your software).\n\n");
    13be:	82 e2       	ldi	r24, 0x22	; 34
    13c0:	92 e0       	ldi	r25, 0x02	; 2
    13c2:	0c c0       	rjmp	.+24     	; 0x13dc <emergencyShutdown+0x9c>
	}
	else if(why == OVERCURRENT)
    13c4:	c3 30       	cpi	r28, 0x03	; 3
    13c6:	61 f4       	brne	.+24     	; 0x13e0 <emergencyShutdown+0xa0>
	{
		writeString_P("\n\n### MOTOR OVERCURRENT ###\n");
    13c8:	85 e0       	ldi	r24, 0x05	; 5
    13ca:	92 e0       	ldi	r25, 0x02	; 2
    13cc:	0e 94 99 0d 	call	0x1b32	; 0x1b32 <writeNStringP>
		writeString_P("\n\n(s. task_motorControl() function in RP6Lib!)\n");
    13d0:	85 ed       	ldi	r24, 0xD5	; 213
    13d2:	91 e0       	ldi	r25, 0x01	; 1
    13d4:	0e 94 99 0d 	call	0x1b32	; 0x1b32 <writeNStringP>
		writeString_P("You need to check Motor assembly (or your software).\n\n");
    13d8:	8e e9       	ldi	r24, 0x9E	; 158
    13da:	91 e0       	ldi	r25, 0x01	; 1
    13dc:	0e 94 99 0d 	call	0x1b32	; 0x1b32 <writeNStringP>
	}
	writeString_P("The Robot needs to be resetted now.\n\n");
    13e0:	88 e7       	ldi	r24, 0x78	; 120
    13e2:	91 e0       	ldi	r25, 0x01	; 1
    13e4:	0e 94 99 0d 	call	0x1b32	; 0x1b32 <writeNStringP>
 *			// this clears all LEDs and sets the LEDs STATUS1,
 *			// STATUS6 and STATUS4!
 */
void setLEDs(uint8_t leds)
{
	statusLEDs.byte = leds;
    13e8:	d6 e3       	ldi	r29, 0x36	; 54
    13ea:	d0 93 9f 00 	sts	0x009F, r29
	updateStatusLEDs();
    13ee:	0e 94 e8 03 	call	0x7d0	; 0x7d0 <updateStatusLEDs>
    13f2:	ca e0       	ldi	r28, 0x0A	; 10
	while(true) // Rest In Peace
	{
		setLEDs(0b110110);
		uint8_t dly;
		for(dly = 10; dly; dly--)
			delayCycles(32768);
    13f4:	80 e0       	ldi	r24, 0x00	; 0
    13f6:	90 e8       	ldi	r25, 0x80	; 128
    13f8:	0e 94 9b 09 	call	0x1336	; 0x1336 <delayCycles>
    13fc:	c1 50       	subi	r28, 0x01	; 1
#endif
	while(true) // Rest In Peace
	{
		setLEDs(0b110110);
		uint8_t dly;
		for(dly = 10; dly; dly--)
    13fe:	d1 f7       	brne	.-12     	; 0x13f4 <emergencyShutdown+0xb4>
 *			// this clears all LEDs and sets the LEDs STATUS1,
 *			// STATUS6 and STATUS4!
 */
void setLEDs(uint8_t leds)
{
	statusLEDs.byte = leds;
    1400:	10 92 9f 00 	sts	0x009F, r1
	updateStatusLEDs();
    1404:	0e 94 e8 03 	call	0x7d0	; 0x7d0 <updateStatusLEDs>
    1408:	ca e0       	ldi	r28, 0x0A	; 10
		uint8_t dly;
		for(dly = 10; dly; dly--)
			delayCycles(32768);
		setLEDs(0b000000);
		for(dly = 10; dly; dly--)
			delayCycles(65535);
    140a:	8f ef       	ldi	r24, 0xFF	; 255
    140c:	9f ef       	ldi	r25, 0xFF	; 255
    140e:	0e 94 9b 09 	call	0x1336	; 0x1336 <delayCycles>
    1412:	c1 50       	subi	r28, 0x01	; 1
		setLEDs(0b110110);
		uint8_t dly;
		for(dly = 10; dly; dly--)
			delayCycles(32768);
		setLEDs(0b000000);
		for(dly = 10; dly; dly--)
    1414:	d1 f7       	brne	.-12     	; 0x140a <emergencyShutdown+0xca>
    1416:	e9 cf       	rjmp	.-46     	; 0x13ea <emergencyShutdown+0xaa>

00001418 <task_motionControl>:
 *
 */
void task_motionControl(void)
{
	// Automatic motor overcurrent shutdown:
	if(overcurrent_timer >= 50) { // every 5ms
    1418:	80 91 e1 00 	lds	r24, 0x00E1
    141c:	82 33       	cpi	r24, 0x32	; 50
    141e:	08 f4       	brcc	.+2      	; 0x1422 <task_motionControl+0xa>
    1420:	75 c0       	rjmp	.+234    	; 0x150c <task_motionControl+0xf4>
		overcurrent_timer = 0;
    1422:	10 92 e1 00 	sts	0x00E1, r1
		if(!overcurrent_timeout) {
    1426:	20 91 de 00 	lds	r18, 0x00DE
    142a:	80 91 05 01 	lds	r24, 0x0105
    142e:	90 91 06 01 	lds	r25, 0x0106
    1432:	21 11       	cpse	r18, r1
    1434:	3c c0       	rjmp	.+120    	; 0x14ae <task_motionControl+0x96>
    1436:	40 91 9e 00 	lds	r20, 0x009E
			if((adcMotorCurrentLeft > 770) || (adcMotorCurrentRight > 770)) {
    143a:	83 30       	cpi	r24, 0x03	; 3
    143c:	23 e0       	ldi	r18, 0x03	; 3
    143e:	92 07       	cpc	r25, r18
    1440:	38 f4       	brcc	.+14     	; 0x1450 <task_motionControl+0x38>
    1442:	20 91 f6 00 	lds	r18, 0x00F6
    1446:	30 91 f7 00 	lds	r19, 0x00F7
    144a:	23 30       	cpi	r18, 0x03	; 3
    144c:	33 40       	sbci	r19, 0x03	; 3
    144e:	e0 f0       	brcs	.+56     	; 0x1488 <task_motionControl+0x70>
				overcurrent_errors++;
    1450:	80 91 e0 00 	lds	r24, 0x00E0
    1454:	8f 5f       	subi	r24, 0xFF	; 255
    1456:	80 93 e0 00 	sts	0x00E0, r24
				overcurrent_timeout = 10; 
    145a:	8a e0       	ldi	r24, 0x0A	; 10
    145c:	80 93 de 00 	sts	0x00DE, r24
				mleft_power = 0;
    1460:	10 92 b6 00 	sts	0x00B6, r1
    1464:	10 92 b5 00 	sts	0x00B5, r1
				mright_power = 0;				
    1468:	10 92 c6 00 	sts	0x00C6, r1
    146c:	10 92 c5 00 	sts	0x00C5, r1
				left_i = 0;
    1470:	10 92 b0 00 	sts	0x00B0, r1
    1474:	10 92 af 00 	sts	0x00AF, r1
				right_i = 0;
    1478:	10 92 eb 00 	sts	0x00EB, r1
    147c:	10 92 ea 00 	sts	0x00EA, r1
				motion_status.overcurrent = true;
    1480:	44 60       	ori	r20, 0x04	; 4
    1482:	40 93 9e 00 	sts	0x009E, r20
				return;
    1486:	08 95       	ret
			}
			else
				motion_status.overcurrent = false;
    1488:	24 2f       	mov	r18, r20
    148a:	2b 7f       	andi	r18, 0xFB	; 251
    148c:	20 93 9e 00 	sts	0x009E, r18
			
			// Emergency shutdown if there are too many (default: 3) overcurrent
			// events within ~20 seconds (100 * 200ms).
			if(overcurrent_error_clear > 100) {
    1490:	20 91 ab 00 	lds	r18, 0x00AB
    1494:	25 36       	cpi	r18, 0x65	; 101
    1496:	28 f0       	brcs	.+10     	; 0x14a2 <task_motionControl+0x8a>
				overcurrent_errors = 0;
    1498:	10 92 e0 00 	sts	0x00E0, r1
				overcurrent_error_clear = 0;
    149c:	10 92 ab 00 	sts	0x00AB, r1
    14a0:	06 c0       	rjmp	.+12     	; 0x14ae <task_motionControl+0x96>
			}
			else if(overcurrent_errors > 2)
    14a2:	20 91 e0 00 	lds	r18, 0x00E0
    14a6:	23 30       	cpi	r18, 0x03	; 3
    14a8:	10 f0       	brcs	.+4      	; 0x14ae <task_motionControl+0x96>
				emergencyShutdown(OVERCURRENT);
    14aa:	83 e0       	ldi	r24, 0x03	; 3
    14ac:	14 c0       	rjmp	.+40     	; 0x14d6 <task_motionControl+0xbe>
		}
		
		// Detect if one of the encoders or motors does not work properly and stop 
		// all operations immediately if this is the case! 
		if((adcMotorCurrentLeft < 150) && (mleft_speed == 0) 
    14ae:	86 39       	cpi	r24, 0x96	; 150
    14b0:	91 05       	cpc	r25, r1
    14b2:	98 f4       	brcc	.+38     	; 0x14da <task_motionControl+0xc2>
    14b4:	80 91 b7 00 	lds	r24, 0x00B7
    14b8:	90 91 b8 00 	lds	r25, 0x00B8
    14bc:	89 2b       	or	r24, r25
    14be:	69 f4       	brne	.+26     	; 0x14da <task_motionControl+0xc2>
		  && (mleft_des_speed != 0) &&  (mleft_ptmp > 150))
    14c0:	80 91 a5 00 	lds	r24, 0x00A5
    14c4:	90 91 a6 00 	lds	r25, 0x00A6
    14c8:	89 2b       	or	r24, r25
    14ca:	39 f0       	breq	.+14     	; 0x14da <task_motionControl+0xc2>
    14cc:	80 91 04 01 	lds	r24, 0x0104
    14d0:	87 39       	cpi	r24, 0x97	; 151
    14d2:	18 f0       	brcs	.+6      	; 0x14da <task_motionControl+0xc2>
			emergencyShutdown(ENCODER_MALFUNCTION_LEFT);
    14d4:	81 e0       	ldi	r24, 0x01	; 1
    14d6:	0e 94 a0 09 	call	0x1340	; 0x1340 <emergencyShutdown>
		if((adcMotorCurrentRight < 150) && (mright_speed == 0) 
    14da:	80 91 f6 00 	lds	r24, 0x00F6
    14de:	90 91 f7 00 	lds	r25, 0x00F7
    14e2:	86 39       	cpi	r24, 0x96	; 150
    14e4:	91 05       	cpc	r25, r1
    14e6:	90 f4       	brcc	.+36     	; 0x150c <task_motionControl+0xf4>
    14e8:	80 91 f9 00 	lds	r24, 0x00F9
    14ec:	90 91 fa 00 	lds	r25, 0x00FA
    14f0:	89 2b       	or	r24, r25
    14f2:	61 f4       	brne	.+24     	; 0x150c <task_motionControl+0xf4>
		  && (mright_des_speed != 0) && (mright_ptmp > 150))
    14f4:	80 91 a3 00 	lds	r24, 0x00A3
    14f8:	90 91 a4 00 	lds	r25, 0x00A4
    14fc:	89 2b       	or	r24, r25
    14fe:	31 f0       	breq	.+12     	; 0x150c <task_motionControl+0xf4>
    1500:	80 91 e2 00 	lds	r24, 0x00E2
    1504:	87 39       	cpi	r24, 0x97	; 151
    1506:	10 f0       	brcs	.+4      	; 0x150c <task_motionControl+0xf4>
			emergencyShutdown(ENCODER_MALFUNCTION_RIGHT);
    1508:	82 e0       	ldi	r24, 0x02	; 2
    150a:	e5 cf       	rjmp	.-54     	; 0x14d6 <task_motionControl+0xbe>
	}
	
	// Motor Control
	if(motor_control) { // Everytime after the speed has been measured. (default: 200ms)
    150c:	80 91 b3 00 	lds	r24, 0x00B3
    1510:	88 23       	and	r24, r24
    1512:	09 f4       	brne	.+2      	; 0x1516 <task_motionControl+0xfe>
    1514:	8e c1       	rjmp	.+796    	; 0x1832 <task_motionControl+0x41a>
		if(!overcurrent_timeout) { // No overcurrent timeout? (default is to wait 2 seconds before new try)
    1516:	80 91 de 00 	lds	r24, 0x00DE
    151a:	81 11       	cpse	r24, r1
    151c:	85 c1       	rjmp	.+778    	; 0x1828 <task_motionControl+0x410>
			if(overcurrent_errors) // Overcurrent errors?
    151e:	80 91 e0 00 	lds	r24, 0x00E0
    1522:	88 23       	and	r24, r24
    1524:	31 f0       	breq	.+12     	; 0x1532 <task_motionControl+0x11a>
				overcurrent_error_clear++; // Yes, Timeout to clear all error events.
    1526:	80 91 ab 00 	lds	r24, 0x00AB
    152a:	8f 5f       	subi	r24, 0xFF	; 255
    152c:	80 93 ab 00 	sts	0x00AB, r24
    1530:	02 c0       	rjmp	.+4      	; 0x1536 <task_motionControl+0x11e>
			else
				overcurrent_error_clear=0; // No, we set the timeout to zero.
    1532:	10 92 ab 00 	sts	0x00AB, r1
				
			// Move Distance left:
			if(motion_status.move_R) {
    1536:	40 91 9e 00 	lds	r20, 0x009E
    153a:	41 ff       	sbrs	r20, 1
    153c:	39 c0       	rjmp	.+114    	; 0x15b0 <task_motionControl+0x198>
				if(mleft_dist >= preStop_R) { // Stop a bit before the desired distance for ..
    153e:	20 91 fb 00 	lds	r18, 0x00FB
    1542:	30 91 fc 00 	lds	r19, 0x00FC
    1546:	80 91 a1 00 	lds	r24, 0x00A1
    154a:	90 91 a2 00 	lds	r25, 0x00A2
    154e:	28 17       	cp	r18, r24
    1550:	39 07       	cpc	r19, r25
    1552:	88 f0       	brcs	.+34     	; 0x1576 <task_motionControl+0x15e>
					mleft_des_speed = 0;      // ... better accurancy.
    1554:	10 92 a6 00 	sts	0x00A6, r1
    1558:	10 92 a5 00 	sts	0x00A5, r1
					left_i = 0;
    155c:	10 92 b0 00 	sts	0x00B0, r1
    1560:	10 92 af 00 	sts	0x00AF, r1
					mleft_power = 0;		
    1564:	10 92 b6 00 	sts	0x00B6, r1
    1568:	10 92 b5 00 	sts	0x00B5, r1
					motion_status.move_R = false;
    156c:	84 2f       	mov	r24, r20
    156e:	8d 7f       	andi	r24, 0xFD	; 253
    1570:	80 93 9e 00 	sts	0x009E, r24
    1574:	1d c0       	rjmp	.+58     	; 0x15b0 <task_motionControl+0x198>
				}
				else if(mleft_dist >= preDecelerate_R) { // Start to decelerate?
    1576:	20 91 fb 00 	lds	r18, 0x00FB
    157a:	30 91 fc 00 	lds	r19, 0x00FC
    157e:	80 91 b9 00 	lds	r24, 0x00B9
    1582:	90 91 ba 00 	lds	r25, 0x00BA
    1586:	28 17       	cp	r18, r24
    1588:	39 07       	cpc	r19, r25
    158a:	90 f0       	brcs	.+36     	; 0x15b0 <task_motionControl+0x198>
					mleft_des_speed /= 2;
    158c:	80 91 a5 00 	lds	r24, 0x00A5
    1590:	90 91 a6 00 	lds	r25, 0x00A6
    1594:	96 95       	lsr	r25
    1596:	87 95       	ror	r24
    1598:	90 93 a6 00 	sts	0x00A6, r25
    159c:	80 93 a5 00 	sts	0x00A5, r24
					if(mleft_des_speed < 22) mleft_des_speed = 22;
    15a0:	46 97       	sbiw	r24, 0x16	; 22
    15a2:	30 f4       	brcc	.+12     	; 0x15b0 <task_motionControl+0x198>
    15a4:	86 e1       	ldi	r24, 0x16	; 22
    15a6:	90 e0       	ldi	r25, 0x00	; 0
    15a8:	90 93 a6 00 	sts	0x00A6, r25
    15ac:	80 93 a5 00 	sts	0x00A5, r24
				}	
			}
			
			// Move Distance right:
			if(motion_status.move_L) {
    15b0:	40 91 9e 00 	lds	r20, 0x009E
    15b4:	40 ff       	sbrs	r20, 0
    15b6:	39 c0       	rjmp	.+114    	; 0x162a <task_motionControl+0x212>
				if(mright_dist >= preStop_L) { // Stop a bit before the desired distance for ..
    15b8:	20 91 ed 00 	lds	r18, 0x00ED
    15bc:	30 91 ee 00 	lds	r19, 0x00EE
    15c0:	80 91 c3 00 	lds	r24, 0x00C3
    15c4:	90 91 c4 00 	lds	r25, 0x00C4
    15c8:	28 17       	cp	r18, r24
    15ca:	39 07       	cpc	r19, r25
    15cc:	88 f0       	brcs	.+34     	; 0x15f0 <task_motionControl+0x1d8>
					mright_des_speed = 0;      // ... better accurancy.
    15ce:	10 92 a4 00 	sts	0x00A4, r1
    15d2:	10 92 a3 00 	sts	0x00A3, r1
					right_i = 0;
    15d6:	10 92 eb 00 	sts	0x00EB, r1
    15da:	10 92 ea 00 	sts	0x00EA, r1
					mright_power = 0;
    15de:	10 92 c6 00 	sts	0x00C6, r1
    15e2:	10 92 c5 00 	sts	0x00C5, r1
					motion_status.move_L = false;
    15e6:	84 2f       	mov	r24, r20
    15e8:	8e 7f       	andi	r24, 0xFE	; 254
    15ea:	80 93 9e 00 	sts	0x009E, r24
    15ee:	1d c0       	rjmp	.+58     	; 0x162a <task_motionControl+0x212>
				}
				else if(mright_dist >= preDecelerate_L) { // Start to decelerate?
    15f0:	20 91 ed 00 	lds	r18, 0x00ED
    15f4:	30 91 ee 00 	lds	r19, 0x00EE
    15f8:	80 91 ef 00 	lds	r24, 0x00EF
    15fc:	90 91 f0 00 	lds	r25, 0x00F0
    1600:	28 17       	cp	r18, r24
    1602:	39 07       	cpc	r19, r25
    1604:	90 f0       	brcs	.+36     	; 0x162a <task_motionControl+0x212>
					mright_des_speed /= 2;
    1606:	80 91 a3 00 	lds	r24, 0x00A3
    160a:	90 91 a4 00 	lds	r25, 0x00A4
    160e:	96 95       	lsr	r25
    1610:	87 95       	ror	r24
    1612:	90 93 a4 00 	sts	0x00A4, r25
    1616:	80 93 a3 00 	sts	0x00A3, r24
					if(mright_des_speed < 22) mright_des_speed = 22;
    161a:	46 97       	sbiw	r24, 0x16	; 22
    161c:	30 f4       	brcc	.+12     	; 0x162a <task_motionControl+0x212>
    161e:	86 e1       	ldi	r24, 0x16	; 22
    1620:	90 e0       	ldi	r25, 0x00	; 0
    1622:	90 93 a4 00 	sts	0x00A4, r25
    1626:	80 93 a3 00 	sts	0x00A3, r24
#else 
#ifdef CHANGE_DIRECTION_MEDIUM
			// Change direction -- Medium Version.
      // This stops before changing the motor direction but is a bit faster
      // than the original version. 
			if(mleft_des_dir != mleft_dir || mright_des_dir != mright_dir) {
    162a:	80 91 88 00 	lds	r24, 0x0088
    162e:	90 91 86 00 	lds	r25, 0x0086
    1632:	89 13       	cpse	r24, r25
    1634:	07 c0       	rjmp	.+14     	; 0x1644 <task_motionControl+0x22c>
    1636:	20 91 87 00 	lds	r18, 0x0087
    163a:	90 91 85 00 	lds	r25, 0x0085
    163e:	29 17       	cp	r18, r25
    1640:	09 f4       	brne	.+2      	; 0x1644 <task_motionControl+0x22c>
    1642:	51 c0       	rjmp	.+162    	; 0x16e6 <task_motionControl+0x2ce>
				if(mleft_des_speed || mright_des_speed) {
    1644:	40 91 a5 00 	lds	r20, 0x00A5
    1648:	50 91 a6 00 	lds	r21, 0x00A6
    164c:	20 91 a3 00 	lds	r18, 0x00A3
    1650:	30 91 a4 00 	lds	r19, 0x00A4
    1654:	41 15       	cp	r20, r1
    1656:	51 05       	cpc	r21, r1
    1658:	19 f4       	brne	.+6      	; 0x1660 <task_motionControl+0x248>
    165a:	21 15       	cp	r18, r1
    165c:	31 05       	cpc	r19, r1
    165e:	01 f1       	breq	.+64     	; 0x16a0 <task_motionControl+0x288>
					mleft_des_speed_tmp = mleft_des_speed; // store current speed
    1660:	50 93 a8 00 	sts	0x00A8, r21
    1664:	40 93 a7 00 	sts	0x00A7, r20
					mright_des_speed_tmp = mright_des_speed; 
    1668:	30 93 bc 00 	sts	0x00BC, r19
    166c:	20 93 bb 00 	sts	0x00BB, r18
					mleft_des_speed = 0;			
    1670:	10 92 a6 00 	sts	0x00A6, r1
    1674:	10 92 a5 00 	sts	0x00A5, r1
					mright_des_speed = 0;
    1678:	10 92 a4 00 	sts	0x00A4, r1
    167c:	10 92 a3 00 	sts	0x00A3, r1
					mright_power=0; // Soft PWM adjust to 0
    1680:	10 92 c6 00 	sts	0x00C6, r1
    1684:	10 92 c5 00 	sts	0x00C5, r1
					mleft_power=0;
    1688:	10 92 b6 00 	sts	0x00B6, r1
    168c:	10 92 b5 00 	sts	0x00B5, r1
					left_i = 0;
    1690:	10 92 b0 00 	sts	0x00B0, r1
    1694:	10 92 af 00 	sts	0x00AF, r1
					right_i = 0;
    1698:	10 92 eb 00 	sts	0x00EB, r1
    169c:	10 92 ea 00 	sts	0x00EA, r1
				}
				if(!TCCR1A) {
    16a0:	9f b5       	in	r25, 0x2f	; 47
    16a2:	91 11       	cpse	r25, r1
    16a4:	20 c0       	rjmp	.+64     	; 0x16e6 <task_motionControl+0x2ce>
					setMotorDir(mleft_des_dir,mright_des_dir);
    16a6:	60 91 87 00 	lds	r22, 0x0087
    16aa:	0e 94 70 05 	call	0xae0	; 0xae0 <setMotorDir>
					mleft_des_speed = mleft_des_speed_tmp;
    16ae:	20 91 a7 00 	lds	r18, 0x00A7
    16b2:	30 91 a8 00 	lds	r19, 0x00A8
    16b6:	30 93 a6 00 	sts	0x00A6, r19
    16ba:	20 93 a5 00 	sts	0x00A5, r18
					mright_des_speed = mright_des_speed_tmp;
    16be:	80 91 bb 00 	lds	r24, 0x00BB
    16c2:	90 91 bc 00 	lds	r25, 0x00BC
    16c6:	90 93 a4 00 	sts	0x00A4, r25
    16ca:	80 93 a3 00 	sts	0x00A3, r24
					left_i = mleft_des_speed / 2;
    16ce:	36 95       	lsr	r19
    16d0:	27 95       	ror	r18
    16d2:	30 93 b0 00 	sts	0x00B0, r19
    16d6:	20 93 af 00 	sts	0x00AF, r18
					right_i = mright_des_speed / 2;
    16da:	96 95       	lsr	r25
    16dc:	87 95       	ror	r24
    16de:	90 93 eb 00 	sts	0x00EB, r25
    16e2:	80 93 ea 00 	sts	0x00EA, r24
#endif
#endif


			// Left motor speed control:
			int16_t error_left = mleft_des_speed - mleft_speed;
    16e6:	20 91 a5 00 	lds	r18, 0x00A5
    16ea:	30 91 a6 00 	lds	r19, 0x00A6
    16ee:	80 91 b7 00 	lds	r24, 0x00B7
    16f2:	90 91 b8 00 	lds	r25, 0x00B8
    16f6:	a9 01       	movw	r20, r18
    16f8:	48 1b       	sub	r20, r24
    16fa:	59 0b       	sbc	r21, r25
    16fc:	ca 01       	movw	r24, r20
			left_i = left_i + error_left;
    16fe:	40 91 af 00 	lds	r20, 0x00AF
    1702:	50 91 b0 00 	lds	r21, 0x00B0
    1706:	84 0f       	add	r24, r20
    1708:	95 1f       	adc	r25, r21
			if(left_i > MC_LEFT_IMAX) left_i = MC_LEFT_IMAX;
    170a:	85 3a       	cpi	r24, 0xA5	; 165
    170c:	51 e0       	ldi	r21, 0x01	; 1
    170e:	95 07       	cpc	r25, r21
    1710:	14 f0       	brlt	.+4      	; 0x1716 <task_motionControl+0x2fe>
    1712:	84 ea       	ldi	r24, 0xA4	; 164
    1714:	91 e0       	ldi	r25, 0x01	; 1
    1716:	90 93 b0 00 	sts	0x00B0, r25
    171a:	80 93 af 00 	sts	0x00AF, r24
			if(left_i < MC_LEFT_IMIN) left_i = MC_LEFT_IMIN;
    171e:	80 91 af 00 	lds	r24, 0x00AF
    1722:	90 91 b0 00 	lds	r25, 0x00B0
    1726:	8c 35       	cpi	r24, 0x5C	; 92
    1728:	9e 4f       	sbci	r25, 0xFE	; 254
    172a:	34 f4       	brge	.+12     	; 0x1738 <task_motionControl+0x320>
    172c:	8c e5       	ldi	r24, 0x5C	; 92
    172e:	9e ef       	ldi	r25, 0xFE	; 254
    1730:	90 93 b0 00 	sts	0x00B0, r25
    1734:	80 93 af 00 	sts	0x00AF, r24
			if(mleft_speed == 0 && mleft_des_speed == 0)
    1738:	80 91 b7 00 	lds	r24, 0x00B7
    173c:	90 91 b8 00 	lds	r25, 0x00B8
    1740:	89 2b       	or	r24, r25
    1742:	31 f4       	brne	.+12     	; 0x1750 <task_motionControl+0x338>
    1744:	23 2b       	or	r18, r19
    1746:	21 f4       	brne	.+8      	; 0x1750 <task_motionControl+0x338>
				left_i = 0;
    1748:	10 92 b0 00 	sts	0x00B0, r1
    174c:	10 92 af 00 	sts	0x00AF, r1
			mleft_power = left_i / 2; 
    1750:	80 91 af 00 	lds	r24, 0x00AF
    1754:	90 91 b0 00 	lds	r25, 0x00B0
    1758:	97 fd       	sbrc	r25, 7
    175a:	01 96       	adiw	r24, 0x01	; 1
    175c:	95 95       	asr	r25
    175e:	87 95       	ror	r24
			if(mleft_power > 210) mleft_power = 210;
    1760:	83 3d       	cpi	r24, 0xD3	; 211
    1762:	91 05       	cpc	r25, r1
    1764:	14 f0       	brlt	.+4      	; 0x176a <task_motionControl+0x352>
    1766:	82 ed       	ldi	r24, 0xD2	; 210
    1768:	90 e0       	ldi	r25, 0x00	; 0
    176a:	90 93 b6 00 	sts	0x00B6, r25
    176e:	80 93 b5 00 	sts	0x00B5, r24
			if(mleft_power < 0) mleft_power = 0;
    1772:	80 91 b5 00 	lds	r24, 0x00B5
    1776:	90 91 b6 00 	lds	r25, 0x00B6
    177a:	97 ff       	sbrs	r25, 7
    177c:	04 c0       	rjmp	.+8      	; 0x1786 <task_motionControl+0x36e>
    177e:	10 92 b6 00 	sts	0x00B6, r1
    1782:	10 92 b5 00 	sts	0x00B5, r1
			
			// Right motor speed control:
			int16_t error_right = mright_des_speed - mright_speed;
    1786:	20 91 a3 00 	lds	r18, 0x00A3
    178a:	30 91 a4 00 	lds	r19, 0x00A4
    178e:	80 91 f9 00 	lds	r24, 0x00F9
    1792:	90 91 fa 00 	lds	r25, 0x00FA
    1796:	a9 01       	movw	r20, r18
    1798:	48 1b       	sub	r20, r24
    179a:	59 0b       	sbc	r21, r25
    179c:	ca 01       	movw	r24, r20
			right_i = right_i + error_right;
    179e:	40 91 ea 00 	lds	r20, 0x00EA
    17a2:	50 91 eb 00 	lds	r21, 0x00EB
    17a6:	84 0f       	add	r24, r20
    17a8:	95 1f       	adc	r25, r21
			if(right_i > MC_RIGHT_IMAX) right_i = MC_RIGHT_IMAX;
    17aa:	85 3a       	cpi	r24, 0xA5	; 165
    17ac:	51 e0       	ldi	r21, 0x01	; 1
    17ae:	95 07       	cpc	r25, r21
    17b0:	14 f0       	brlt	.+4      	; 0x17b6 <task_motionControl+0x39e>
    17b2:	84 ea       	ldi	r24, 0xA4	; 164
    17b4:	91 e0       	ldi	r25, 0x01	; 1
    17b6:	90 93 eb 00 	sts	0x00EB, r25
    17ba:	80 93 ea 00 	sts	0x00EA, r24
			if(right_i < MC_RIGHT_IMIN) right_i = MC_RIGHT_IMIN;
    17be:	80 91 ea 00 	lds	r24, 0x00EA
    17c2:	90 91 eb 00 	lds	r25, 0x00EB
    17c6:	8c 35       	cpi	r24, 0x5C	; 92
    17c8:	9e 4f       	sbci	r25, 0xFE	; 254
    17ca:	34 f4       	brge	.+12     	; 0x17d8 <task_motionControl+0x3c0>
    17cc:	8c e5       	ldi	r24, 0x5C	; 92
    17ce:	9e ef       	ldi	r25, 0xFE	; 254
    17d0:	90 93 eb 00 	sts	0x00EB, r25
    17d4:	80 93 ea 00 	sts	0x00EA, r24
			if(mright_speed == 0 && mright_des_speed == 0)
    17d8:	80 91 f9 00 	lds	r24, 0x00F9
    17dc:	90 91 fa 00 	lds	r25, 0x00FA
    17e0:	89 2b       	or	r24, r25
    17e2:	31 f4       	brne	.+12     	; 0x17f0 <task_motionControl+0x3d8>
    17e4:	23 2b       	or	r18, r19
    17e6:	21 f4       	brne	.+8      	; 0x17f0 <task_motionControl+0x3d8>
				right_i = 0;
    17e8:	10 92 eb 00 	sts	0x00EB, r1
    17ec:	10 92 ea 00 	sts	0x00EA, r1
			mright_power = right_i / 2;
    17f0:	80 91 ea 00 	lds	r24, 0x00EA
    17f4:	90 91 eb 00 	lds	r25, 0x00EB
    17f8:	97 fd       	sbrc	r25, 7
    17fa:	01 96       	adiw	r24, 0x01	; 1
    17fc:	95 95       	asr	r25
    17fe:	87 95       	ror	r24
			if(mright_power > 210) mright_power = 210;
    1800:	83 3d       	cpi	r24, 0xD3	; 211
    1802:	91 05       	cpc	r25, r1
    1804:	14 f0       	brlt	.+4      	; 0x180a <task_motionControl+0x3f2>
    1806:	82 ed       	ldi	r24, 0xD2	; 210
    1808:	90 e0       	ldi	r25, 0x00	; 0
    180a:	90 93 c6 00 	sts	0x00C6, r25
    180e:	80 93 c5 00 	sts	0x00C5, r24
			if(mright_power < 0) mright_power = 0;
    1812:	80 91 c5 00 	lds	r24, 0x00C5
    1816:	90 91 c6 00 	lds	r25, 0x00C6
    181a:	97 ff       	sbrs	r25, 7
    181c:	08 c0       	rjmp	.+16     	; 0x182e <task_motionControl+0x416>
    181e:	10 92 c6 00 	sts	0x00C6, r1
    1822:	10 92 c5 00 	sts	0x00C5, r1
    1826:	03 c0       	rjmp	.+6      	; 0x182e <task_motionControl+0x416>
		}
		else
			overcurrent_timeout--;
    1828:	81 50       	subi	r24, 0x01	; 1
    182a:	80 93 de 00 	sts	0x00DE, r24
		motor_control = false;
    182e:	10 92 b3 00 	sts	0x00B3, r1
	}
	
	// Call event handlers if necessary:
	if(motion_status_tmp != motion_status.byte)
    1832:	80 91 9e 00 	lds	r24, 0x009E
    1836:	90 91 ff 00 	lds	r25, 0x00FF
    183a:	98 17       	cp	r25, r24
    183c:	39 f0       	breq	.+14     	; 0x184c <task_motionControl+0x434>
	{
		motion_status_tmp = motion_status.byte;
    183e:	80 93 ff 00 	sts	0x00FF, r24
		MOTIONCONTROL_stateChangedHandler();
    1842:	e0 91 6c 00 	lds	r30, 0x006C
    1846:	f0 91 6d 00 	lds	r31, 0x006D
    184a:	09 94       	ijmp
    184c:	08 95       	ret

0000184e <extIntON>:
/**
 * Set external interrupt to high level
 */
void extIntON(void)
{
	DDRA |= E_INT1;
    184e:	d4 9a       	sbi	0x1a, 4	; 26
	PORTA |= E_INT1;
    1850:	dc 9a       	sbi	0x1b, 4	; 27
    1852:	08 95       	ret

00001854 <extIntOFF>:
/**
 * Set external interrupt to low level
 */
void extIntOFF(void)
{
	PORTA &= ~E_INT1;
    1854:	dc 98       	cbi	0x1b, 4	; 27
	DDRA &= ~E_INT1;
    1856:	d4 98       	cbi	0x1a, 4	; 26
    1858:	08 95       	ret

0000185a <task_RP6System>:
/**
 * Calls all important system tasks.
 */
void task_RP6System(void)
{
	task_ADC();
    185a:	0e 94 7b 04 	call	0x8f6	; 0x8f6 <task_ADC>
	task_ACS();
    185e:	0e 94 30 06 	call	0xc60	; 0xc60 <task_ACS>
	task_Bumpers();
    1862:	0e 94 48 04 	call	0x890	; 0x890 <task_Bumpers>
	task_motionControl();
    1866:	0c 94 0c 0a 	jmp	0x1418	; 0x1418 <task_motionControl>

0000186a <move>:
 * If you need faster reaction rather than precision then you should implement 
 * your own routine and set the distance a bit lower... 
 *
 */
void move(uint8_t desired_speed, uint8_t dir, uint16_t distance, uint8_t blocking)
{
    186a:	ef 92       	push	r14
    186c:	ff 92       	push	r15
    186e:	1f 93       	push	r17
    1870:	cf 93       	push	r28
    1872:	df 93       	push	r29
    1874:	1f 92       	push	r1
    1876:	cd b7       	in	r28, 0x3d	; 61
    1878:	de b7       	in	r29, 0x3e	; 62
    187a:	16 2f       	mov	r17, r22
    187c:	7a 01       	movw	r14, r20
	motion_status.move_L = true;
    187e:	90 91 9e 00 	lds	r25, 0x009E
	motion_status.move_R = true;
    1882:	91 60       	ori	r25, 0x01	; 1
    1884:	92 60       	ori	r25, 0x02	; 2
    1886:	90 93 9e 00 	sts	0x009E, r25
	preDecelerate_L = 0;
    188a:	10 92 f0 00 	sts	0x00F0, r1
    188e:	10 92 ef 00 	sts	0x00EF, r1
	preDecelerate_R = 0;
    1892:	10 92 ba 00 	sts	0x00BA, r1
    1896:	10 92 b9 00 	sts	0x00B9, r1
	if(desired_speed > 22) {
    189a:	87 31       	cpi	r24, 0x17	; 23
    189c:	80 f0       	brcs	.+32     	; 0x18be <move+0x54>
		preDecelerate_L = distance - (20+(desired_speed*2));
    189e:	46 ef       	ldi	r20, 0xF6	; 246
    18a0:	5f ef       	ldi	r21, 0xFF	; 255
    18a2:	48 1b       	sub	r20, r24
    18a4:	51 09       	sbc	r21, r1
    18a6:	44 0f       	add	r20, r20
    18a8:	55 1f       	adc	r21, r21
    18aa:	4e 0d       	add	r20, r14
    18ac:	5f 1d       	adc	r21, r15
    18ae:	50 93 f0 00 	sts	0x00F0, r21
    18b2:	40 93 ef 00 	sts	0x00EF, r20
		preDecelerate_R = preDecelerate_L;
    18b6:	50 93 ba 00 	sts	0x00BA, r21
    18ba:	40 93 b9 00 	sts	0x00B9, r20
	}
	preStop_L = distance - 2;
    18be:	a7 01       	movw	r20, r14
    18c0:	42 50       	subi	r20, 0x02	; 2
    18c2:	51 09       	sbc	r21, r1
    18c4:	50 93 c4 00 	sts	0x00C4, r21
    18c8:	40 93 c3 00 	sts	0x00C3, r20
	preStop_R = preStop_L;
    18cc:	50 93 a2 00 	sts	0x00A2, r21
    18d0:	40 93 a1 00 	sts	0x00A1, r20
	if(distance < 40) {
    18d4:	98 e2       	ldi	r25, 0x28	; 40
    18d6:	e9 16       	cp	r14, r25
    18d8:	f1 04       	cpc	r15, r1
    18da:	c0 f4       	brcc	.+48     	; 0x190c <move+0xa2>
		distance = 40; 
		preStop_L = 20;
    18dc:	44 e1       	ldi	r20, 0x14	; 20
    18de:	50 e0       	ldi	r21, 0x00	; 0
    18e0:	50 93 c4 00 	sts	0x00C4, r21
    18e4:	40 93 c3 00 	sts	0x00C3, r20
		preStop_R = preStop_L;
    18e8:	50 93 a2 00 	sts	0x00A2, r21
    18ec:	40 93 a1 00 	sts	0x00A1, r20
		preDecelerate_L = 10;
    18f0:	4a e0       	ldi	r20, 0x0A	; 10
    18f2:	50 e0       	ldi	r21, 0x00	; 0
    18f4:	50 93 f0 00 	sts	0x00F0, r21
    18f8:	40 93 ef 00 	sts	0x00EF, r20
		preDecelerate_R = preDecelerate_L;
    18fc:	50 93 ba 00 	sts	0x00BA, r21
    1900:	40 93 b9 00 	sts	0x00B9, r20
		preDecelerate_R = preDecelerate_L;
	}
	preStop_L = distance - 2;
	preStop_R = preStop_L;
	if(distance < 40) {
		distance = 40; 
    1904:	a8 e2       	ldi	r26, 0x28	; 40
    1906:	ea 2e       	mov	r14, r26
    1908:	f1 2c       	mov	r15, r1
    190a:	05 c0       	rjmp	.+10     	; 0x1916 <move+0xac>
		preStop_L = 20;
		preStop_R = preStop_L;
		preDecelerate_L = 10;
		preDecelerate_R = preDecelerate_L;
	}
	if(distance < 400 && desired_speed > 40) {
    190c:	e0 e9       	ldi	r30, 0x90	; 144
    190e:	ee 16       	cp	r14, r30
    1910:	e1 e0       	ldi	r30, 0x01	; 1
    1912:	fe 06       	cpc	r15, r30
    1914:	98 f4       	brcc	.+38     	; 0x193c <move+0xd2>
    1916:	89 32       	cpi	r24, 0x29	; 41
    1918:	88 f0       	brcs	.+34     	; 0x193c <move+0xd2>
		desired_speed = 40; 
		preDecelerate_L = distance - (distance/4);
    191a:	a7 01       	movw	r20, r14
    191c:	56 95       	lsr	r21
    191e:	47 95       	ror	r20
    1920:	56 95       	lsr	r21
    1922:	47 95       	ror	r20
    1924:	c7 01       	movw	r24, r14
    1926:	84 1b       	sub	r24, r20
    1928:	95 0b       	sbc	r25, r21
    192a:	90 93 f0 00 	sts	0x00F0, r25
    192e:	80 93 ef 00 	sts	0x00EF, r24
		preDecelerate_R = preDecelerate_L;
    1932:	90 93 ba 00 	sts	0x00BA, r25
    1936:	80 93 b9 00 	sts	0x00B9, r24
		preStop_R = preStop_L;
		preDecelerate_L = 10;
		preDecelerate_R = preDecelerate_L;
	}
	if(distance < 400 && desired_speed > 40) {
		desired_speed = 40; 
    193a:	88 e2       	ldi	r24, 0x28	; 40
		preDecelerate_L = distance - (distance/4);
		preDecelerate_R = preDecelerate_L;
	}
    mleft_dist = 0; 
    193c:	10 92 fc 00 	sts	0x00FC, r1
    1940:	10 92 fb 00 	sts	0x00FB, r1
	mright_dist = 0;
    1944:	10 92 ee 00 	sts	0x00EE, r1
    1948:	10 92 ed 00 	sts	0x00ED, r1
	moveAtSpeed(desired_speed,desired_speed);
    194c:	68 2f       	mov	r22, r24
    194e:	29 83       	std	Y+1, r18	; 0x01
    1950:	0e 94 06 05 	call	0xa0c	; 0xa0c <moveAtSpeed>
	changeDirection(dir);
    1954:	81 2f       	mov	r24, r17
    1956:	0e 94 17 05 	call	0xa2e	; 0xa2e <changeDirection>
	
	distanceToMove_L = distance;
    195a:	f0 92 cc 00 	sts	0x00CC, r15
    195e:	e0 92 cb 00 	sts	0x00CB, r14
	distanceToMove_R = distance;
    1962:	f0 92 ad 00 	sts	0x00AD, r15
    1966:	e0 92 ac 00 	sts	0x00AC, r14

	motion_status_tmp = motion_status.byte;
    196a:	80 91 9e 00 	lds	r24, 0x009E
    196e:	80 93 ff 00 	sts	0x00FF, r24
	
	motion_status_tmp = motion_status.byte;
	MOTIONCONTROL_stateChangedHandler();
    1972:	e0 91 6c 00 	lds	r30, 0x006C
    1976:	f0 91 6d 00 	lds	r31, 0x006D
    197a:	09 95       	icall
	
	if(blocking)
    197c:	29 81       	ldd	r18, Y+1	; 0x01
    197e:	22 23       	and	r18, r18
    1980:	39 f0       	breq	.+14     	; 0x1990 <move+0x126>
		while(!isMovementComplete())
    1982:	0e 94 3b 05 	call	0xa76	; 0xa76 <isMovementComplete>
    1986:	81 11       	cpse	r24, r1
    1988:	03 c0       	rjmp	.+6      	; 0x1990 <move+0x126>
			task_RP6System();
    198a:	0e 94 2d 0c 	call	0x185a	; 0x185a <task_RP6System>
    198e:	f9 cf       	rjmp	.-14     	; 0x1982 <move+0x118>
}
    1990:	0f 90       	pop	r0
    1992:	df 91       	pop	r29
    1994:	cf 91       	pop	r28
    1996:	1f 91       	pop	r17
    1998:	ff 90       	pop	r15
    199a:	ef 90       	pop	r14
    199c:	08 95       	ret

0000199e <rotate>:
 * This means that you can use external sensors for rotation in order to make it
 * more accurate. For example an electronic compass. 
 * 
 */
void rotate(uint8_t desired_speed, uint8_t dir, uint16_t angle, uint8_t blocking)
{
    199e:	ff 92       	push	r15
    19a0:	0f 93       	push	r16
    19a2:	1f 93       	push	r17
    19a4:	cf 93       	push	r28
    19a6:	df 93       	push	r29
    19a8:	18 2f       	mov	r17, r24
    19aa:	f6 2e       	mov	r15, r22
    19ac:	02 2f       	mov	r16, r18
	motion_status.move_L = true;
    19ae:	80 91 9e 00 	lds	r24, 0x009E
	motion_status.move_R = true;
    19b2:	81 60       	ori	r24, 0x01	; 1
    19b4:	82 60       	ori	r24, 0x02	; 2
    19b6:	80 93 9e 00 	sts	0x009E, r24
	uint16_t distance = (uint16_t) (((uint32_t)(ROTATION_FACTOR) * (uint16_t)angle)/100);
    19ba:	9a 01       	movw	r18, r20
    19bc:	a0 eb       	ldi	r26, 0xB0	; 176
    19be:	b2 e0       	ldi	r27, 0x02	; 2
    19c0:	0e 94 10 10 	call	0x2020	; 0x2020 <__umulhisi3>
    19c4:	24 e6       	ldi	r18, 0x64	; 100
    19c6:	30 e0       	ldi	r19, 0x00	; 0
    19c8:	40 e0       	ldi	r20, 0x00	; 0
    19ca:	50 e0       	ldi	r21, 0x00	; 0
    19cc:	0e 94 33 10 	call	0x2066	; 0x2066 <__udivmodsi4>
    19d0:	e9 01       	movw	r28, r18
	preDecelerate_L = distance - 100;
    19d2:	c9 01       	movw	r24, r18
    19d4:	84 56       	subi	r24, 0x64	; 100
    19d6:	91 09       	sbc	r25, r1
    19d8:	90 93 f0 00 	sts	0x00F0, r25
    19dc:	80 93 ef 00 	sts	0x00EF, r24
	preDecelerate_R = distance - 100;
    19e0:	90 93 ba 00 	sts	0x00BA, r25
    19e4:	80 93 b9 00 	sts	0x00B9, r24
	preStop_L = distance;
    19e8:	30 93 c4 00 	sts	0x00C4, r19
    19ec:	20 93 c3 00 	sts	0x00C3, r18
	preStop_R = distance;
    19f0:	30 93 a2 00 	sts	0x00A2, r19
    19f4:	20 93 a1 00 	sts	0x00A1, r18
	if(distance < 40) {
    19f8:	28 32       	cpi	r18, 0x28	; 40
    19fa:	31 05       	cpc	r19, r1
    19fc:	b0 f4       	brcc	.+44     	; 0x1a2a <rotate+0x8c>
		distance = 40; 
		preStop_L = 20;
    19fe:	44 e1       	ldi	r20, 0x14	; 20
    1a00:	50 e0       	ldi	r21, 0x00	; 0
    1a02:	50 93 c4 00 	sts	0x00C4, r21
    1a06:	40 93 c3 00 	sts	0x00C3, r20
		preStop_R = 20;
    1a0a:	50 93 a2 00 	sts	0x00A2, r21
    1a0e:	40 93 a1 00 	sts	0x00A1, r20
		preDecelerate_L = 10;
    1a12:	4a e0       	ldi	r20, 0x0A	; 10
    1a14:	50 e0       	ldi	r21, 0x00	; 0
    1a16:	50 93 f0 00 	sts	0x00F0, r21
    1a1a:	40 93 ef 00 	sts	0x00EF, r20
		preDecelerate_R = 10;
    1a1e:	50 93 ba 00 	sts	0x00BA, r21
    1a22:	40 93 b9 00 	sts	0x00B9, r20
	preDecelerate_L = distance - 100;
	preDecelerate_R = distance - 100;
	preStop_L = distance;
	preStop_R = distance;
	if(distance < 40) {
		distance = 40; 
    1a26:	c8 e2       	ldi	r28, 0x28	; 40
    1a28:	d0 e0       	ldi	r29, 0x00	; 0
		preStop_L = 20;
		preStop_R = 20;
		preDecelerate_L = 10;
		preDecelerate_R = 10;
	}
	moveAtSpeed(desired_speed,desired_speed);
    1a2a:	61 2f       	mov	r22, r17
    1a2c:	81 2f       	mov	r24, r17
    1a2e:	0e 94 06 05 	call	0xa0c	; 0xa0c <moveAtSpeed>
	changeDirection(dir);
    1a32:	8f 2d       	mov	r24, r15
    1a34:	0e 94 17 05 	call	0xa2e	; 0xa2e <changeDirection>
	
    mleft_dist = 0; 
    1a38:	10 92 fc 00 	sts	0x00FC, r1
    1a3c:	10 92 fb 00 	sts	0x00FB, r1
	mright_dist = 0;
    1a40:	10 92 ee 00 	sts	0x00EE, r1
    1a44:	10 92 ed 00 	sts	0x00ED, r1
	distanceToMove_L = distance;
    1a48:	d0 93 cc 00 	sts	0x00CC, r29
    1a4c:	c0 93 cb 00 	sts	0x00CB, r28
	distanceToMove_R = distance;
    1a50:	d0 93 ad 00 	sts	0x00AD, r29
    1a54:	c0 93 ac 00 	sts	0x00AC, r28
	
	motion_status_tmp = motion_status.byte;
    1a58:	80 91 9e 00 	lds	r24, 0x009E
    1a5c:	80 93 ff 00 	sts	0x00FF, r24
	MOTIONCONTROL_stateChangedHandler();
    1a60:	e0 91 6c 00 	lds	r30, 0x006C
    1a64:	f0 91 6d 00 	lds	r31, 0x006D
    1a68:	09 95       	icall
	if(blocking)
    1a6a:	00 23       	and	r16, r16
    1a6c:	39 f0       	breq	.+14     	; 0x1a7c <rotate+0xde>
		while(!isMovementComplete())
    1a6e:	0e 94 3b 05 	call	0xa76	; 0xa76 <isMovementComplete>
    1a72:	81 11       	cpse	r24, r1
    1a74:	03 c0       	rjmp	.+6      	; 0x1a7c <rotate+0xde>
			task_RP6System();
    1a76:	0e 94 2d 0c 	call	0x185a	; 0x185a <task_RP6System>
    1a7a:	f9 cf       	rjmp	.-14     	; 0x1a6e <rotate+0xd0>
}
    1a7c:	df 91       	pop	r29
    1a7e:	cf 91       	pop	r28
    1a80:	1f 91       	pop	r17
    1a82:	0f 91       	pop	r16
    1a84:	ff 90       	pop	r15
    1a86:	08 95       	ret

00001a88 <initRobotBase>:
 *			}
 *
 */
void initRobotBase(void)
{
	portInit();		// Setup port directions and initial values.
    1a88:	1b ba       	out	0x1b, r1	; 27
    1a8a:	18 ba       	out	0x18, r1	; 24
    1a8c:	15 ba       	out	0x15, r1	; 21
    1a8e:	81 e0       	ldi	r24, 0x01	; 1
    1a90:	82 bb       	out	0x12, r24	; 18
    1a92:	1a ba       	out	0x1a, r1	; 26
    1a94:	88 e5       	ldi	r24, 0x58	; 88
    1a96:	87 bb       	out	0x17, r24	; 23
    1a98:	8c e8       	ldi	r24, 0x8C	; 140
    1a9a:	84 bb       	out	0x14, r24	; 20
    1a9c:	82 ef       	ldi	r24, 0xF2	; 242
    1a9e:	81 bb       	out	0x11, r24	; 17
					// THIS IS THE MOST IMPORTANT STEP!

	cli();			// Disable global interrupts
    1aa0:	f8 94       	cli
	
	enableResetButton(); // Make sure the Reset Button is enabled!
    1aa2:	c5 98       	cbi	0x18, 5	; 24
    1aa4:	bd 9a       	sbi	0x17, 5	; 23
						 // Do not disable it if you want to be able to
						 // reset your robot! (Otherwise you can only
						 // stop it by switching it off completely, 
						 // if it gets out of control ;) )

	IRCOMM_OFF(); 	     // Make sure that IRCOMM and ...
    1aa6:	97 98       	cbi	0x12, 7	; 18
	setACSPwrOff();		 // ACS are turned OFF!
    1aa8:	0e 94 8f 07 	call	0xf1e	; 0xf1e <setACSPwrOff>

	// UART:
	UBRRH = UBRR_BAUD_LOW >> 8;	// Setup UART: Baudrate is Low Speed
    1aac:	10 bc       	out	0x20, r1	; 32
	UBRRL = (uint8_t) UBRR_BAUD_LOW;
    1aae:	8c e0       	ldi	r24, 0x0C	; 12
    1ab0:	89 b9       	out	0x09, r24	; 9
	UCSRA = 0x00;
    1ab2:	1b b8       	out	0x0b, r1	; 11
    UCSRC = (1<<URSEL)|(1<<UCSZ1)|(1<<UCSZ0);
    1ab4:	86 e8       	ldi	r24, 0x86	; 134
    1ab6:	80 bd       	out	0x20, r24	; 32
    UCSRB = (1 << TXEN) | (1 << RXEN) | (1 << RXCIE);
    1ab8:	88 e9       	ldi	r24, 0x98	; 152
    1aba:	8a b9       	out	0x0a, r24	; 10
	
	// Initialize ADC:
	ADMUX = 0; //external reference 
    1abc:	17 b8       	out	0x07, r1	; 7
	ADCSRA = (0<<ADIE) | (0<<ADEN) | (1<<ADPS2) | (1<<ADPS1) | (1<<ADIF);
    1abe:	86 e1       	ldi	r24, 0x16	; 22
    1ac0:	86 b9       	out	0x06, r24	; 6
	SFIOR = 0;
    1ac2:	10 be       	out	0x30, r1	; 48

	// Initialize External interrupts:
	MCUCR = (0 << ISC11) | (1 << ISC10) | (0 << ISC01) | (1 << ISC00);
    1ac4:	85 e0       	ldi	r24, 0x05	; 5
    1ac6:	85 bf       	out	0x35, r24	; 53
	GICR = (1 << INT2) | (1 << INT1) | (1 << INT0);
    1ac8:	80 ee       	ldi	r24, 0xE0	; 224
    1aca:	8b bf       	out	0x3b, r24	; 59
	MCUCSR = (0 << ISC2);
    1acc:	14 be       	out	0x34, r1	; 52

	// Initialize Timer 0 -  100s cycle for Delays/Stopwatches, RC5 reception etc.:
	TCCR0 =   (0 << WGM00) | (1 << WGM01) 
    1ace:	8a e0       	ldi	r24, 0x0A	; 10
    1ad0:	83 bf       	out	0x33, r24	; 51
			| (0 << COM00) | (0 << COM01) 
			| (0 << CS02)  | (1 << CS01) | (0 << CS00);
	OCR0  = 99;
    1ad2:	83 e6       	ldi	r24, 0x63	; 99
    1ad4:	8c bf       	out	0x3c, r24	; 60

	// Initialize Timer1 - PWM:
	// PWM, phase correct with ICR1 as top value.
	TCCR1A = (0 << WGM10) | (1 << WGM11) | (1 << COM1A1) | (1 << COM1B1);
    1ad6:	82 ea       	ldi	r24, 0xA2	; 162
    1ad8:	8f bd       	out	0x2f, r24	; 47
	TCCR1B =  (1 << WGM13) | (0 << WGM12) | (1 << CS10);
    1ada:	81 e1       	ldi	r24, 0x11	; 17
    1adc:	8e bd       	out	0x2e, r24	; 46
	ICR1 = 210; // Phase corret PWM top value - 210 results in 
    1ade:	82 ed       	ldi	r24, 0xD2	; 210
    1ae0:	90 e0       	ldi	r25, 0x00	; 0
    1ae2:	97 bd       	out	0x27, r25	; 39
    1ae4:	86 bd       	out	0x26, r24	; 38
				// annoying high pitch noises from the motors!
				// 19 kHz is a bit over the maximum frequency most people can
				// hear!
				// 
				// ATTENTION: Max PWM value is 210 and NOT 255 !!!
	OCR1AL = 0;
    1ae6:	1a bc       	out	0x2a, r1	; 42
	OCR1BL = 0;
    1ae8:	18 bc       	out	0x28, r1	; 40
	setMotorDir(FWD,FWD); 	// Direction Forwards
    1aea:	60 e0       	ldi	r22, 0x00	; 0
    1aec:	80 e0       	ldi	r24, 0x00	; 0
    1aee:	0e 94 70 05 	call	0xae0	; 0xae0 <setMotorDir>

	// Initialize Timer2 - ACS:
	TCCR2 = (1 << WGM21) | (0 << COM20) | (1 << CS20);
    1af2:	89 e0       	ldi	r24, 0x09	; 9
    1af4:	85 bd       	out	0x25, r24	; 37
	OCR2  = 0x6E; // 0x6E = 72kHz @8MHz
    1af6:	8e e6       	ldi	r24, 0x6E	; 110
    1af8:	83 bd       	out	0x23, r24	; 35
	
	// Initialize Timer Interrupts:
	TIMSK = (1 << OCIE0); //| (1 << OCIE2); // Fixed: Timer2 Interrupt is turned 
    1afa:	82 e0       	ldi	r24, 0x02	; 2
    1afc:	89 bf       	out	0x39, r24	; 57
	                      // off by default now! It is only active 
						  // when ACS/IRCOMM are transmitting.

	// Initialize ACS:
	sysStatACS.channel = ACS_CHANNEL_RIGHT;
    1afe:	80 91 a9 00 	lds	r24, 0x00A9
    1b02:	81 60       	ori	r24, 0x01	; 1
    1b04:	80 93 a9 00 	sts	0x00A9, r24
	acs_state = ACS_STATE_IRCOMM_DELAY;
    1b08:	81 e0       	ldi	r24, 0x01	; 1
    1b0a:	80 93 6b 00 	sts	0x006B, r24

	sei(); // Enable Global Interrupts
    1b0e:	78 94       	sei
    1b10:	08 95       	ret

00001b12 <writeChar>:
 *			00123
 *
 */
void writeChar(char ch)
{
    while (!(UCSRA & (1<<UDRE)));
    1b12:	5d 9b       	sbis	0x0b, 5	; 11
    1b14:	fe cf       	rjmp	.-4      	; 0x1b12 <writeChar>
    UDR = (uint8_t)ch;
    1b16:	8c b9       	out	0x0c, r24	; 12
    1b18:	08 95       	ret

00001b1a <writeString>:
 *
 *			writeString("RP6 Robot System\n");
 *
 */
void writeString(char *string)
{
    1b1a:	cf 93       	push	r28
    1b1c:	df 93       	push	r29
    1b1e:	ec 01       	movw	r28, r24
	while(*string)
    1b20:	89 91       	ld	r24, Y+
    1b22:	88 23       	and	r24, r24
    1b24:	19 f0       	breq	.+6      	; 0x1b2c <writeString+0x12>
		writeChar(*string++);
    1b26:	0e 94 89 0d 	call	0x1b12	; 0x1b12 <writeChar>
    1b2a:	fa cf       	rjmp	.-12     	; 0x1b20 <writeString+0x6>
}
    1b2c:	df 91       	pop	r29
    1b2e:	cf 91       	pop	r28
    1b30:	08 95       	ret

00001b32 <writeNStringP>:
 *			// you can simply write:
 *			writeString_P("RP6 Robot System\n");
 *
 */
void writeNStringP(const char *pstring)
{
    1b32:	cf 93       	push	r28
    1b34:	df 93       	push	r29
    1b36:	fc 01       	movw	r30, r24
    uint8_t c;
    for (;(c = pgm_read_byte_near(pstring++));writeChar(c));
    1b38:	84 91       	lpm	r24, Z
    1b3a:	ef 01       	movw	r28, r30
    1b3c:	21 96       	adiw	r28, 0x01	; 1
    1b3e:	88 23       	and	r24, r24
    1b40:	21 f0       	breq	.+8      	; 0x1b4a <writeNStringP+0x18>
    1b42:	0e 94 89 0d 	call	0x1b12	; 0x1b12 <writeChar>
    1b46:	fe 01       	movw	r30, r28
    1b48:	f7 cf       	rjmp	.-18     	; 0x1b38 <writeNStringP+0x6>
}
    1b4a:	df 91       	pop	r29
    1b4c:	cf 91       	pop	r28
    1b4e:	08 95       	ret

00001b50 <writeStringLength>:
 *			// would output: "Robot System\n"
 *			// No matter if the specified length is 40 characters!
 *
 */
void writeStringLength(char *string, uint8_t length, uint8_t offset)
{
    1b50:	0f 93       	push	r16
    1b52:	1f 93       	push	r17
    1b54:	cf 93       	push	r28
    1b56:	df 93       	push	r29
    1b58:	1f 92       	push	r1
    1b5a:	cd b7       	in	r28, 0x3d	; 61
    1b5c:	de b7       	in	r29, 0x3e	; 62
	for(string = &string[offset]; *string && length; length--)
    1b5e:	8c 01       	movw	r16, r24
    1b60:	04 0f       	add	r16, r20
    1b62:	11 1d       	adc	r17, r1
    1b64:	f8 01       	movw	r30, r16
    1b66:	81 91       	ld	r24, Z+
    1b68:	8f 01       	movw	r16, r30
    1b6a:	88 23       	and	r24, r24
    1b6c:	41 f0       	breq	.+16     	; 0x1b7e <writeStringLength+0x2e>
    1b6e:	66 23       	and	r22, r22
    1b70:	31 f0       	breq	.+12     	; 0x1b7e <writeStringLength+0x2e>
		writeChar(*string++);
    1b72:	69 83       	std	Y+1, r22	; 0x01
    1b74:	0e 94 89 0d 	call	0x1b12	; 0x1b12 <writeChar>
 *			// No matter if the specified length is 40 characters!
 *
 */
void writeStringLength(char *string, uint8_t length, uint8_t offset)
{
	for(string = &string[offset]; *string && length; length--)
    1b78:	69 81       	ldd	r22, Y+1	; 0x01
    1b7a:	61 50       	subi	r22, 0x01	; 1
    1b7c:	f3 cf       	rjmp	.-26     	; 0x1b64 <writeStringLength+0x14>
		writeChar(*string++);
}
    1b7e:	0f 90       	pop	r0
    1b80:	df 91       	pop	r29
    1b82:	cf 91       	pop	r28
    1b84:	1f 91       	pop	r17
    1b86:	0f 91       	pop	r16
    1b88:	08 95       	ret

00001b8a <writeInteger>:
 *			writeInteger(1024,DEC);  	// Decimal
 *			writeInteger(044,OCT);		// Ocal
 *			writeInteger(0b11010111,BIN); // Binary
 */
void writeInteger(int16_t number, uint8_t base)
{
    1b8a:	cf 93       	push	r28
    1b8c:	df 93       	push	r29
    1b8e:	cd b7       	in	r28, 0x3d	; 61
    1b90:	de b7       	in	r29, 0x3e	; 62
    1b92:	61 97       	sbiw	r28, 0x11	; 17
    1b94:	0f b6       	in	r0, 0x3f	; 63
    1b96:	f8 94       	cli
    1b98:	de bf       	out	0x3e, r29	; 62
    1b9a:	0f be       	out	0x3f, r0	; 63
    1b9c:	cd bf       	out	0x3d, r28	; 61
	char buffer[17];
	itoa(number, &buffer[0], base);
    1b9e:	46 2f       	mov	r20, r22
    1ba0:	50 e0       	ldi	r21, 0x00	; 0
    1ba2:	be 01       	movw	r22, r28
    1ba4:	6f 5f       	subi	r22, 0xFF	; 255
    1ba6:	7f 4f       	sbci	r23, 0xFF	; 255
    1ba8:	0e 94 5b 10 	call	0x20b6	; 0x20b6 <itoa>
	writeString(&buffer[0]);
    1bac:	ce 01       	movw	r24, r28
    1bae:	01 96       	adiw	r24, 0x01	; 1
    1bb0:	0e 94 8d 0d 	call	0x1b1a	; 0x1b1a <writeString>
}
    1bb4:	61 96       	adiw	r28, 0x11	; 17
    1bb6:	0f b6       	in	r0, 0x3f	; 63
    1bb8:	f8 94       	cli
    1bba:	de bf       	out	0x3e, r29	; 62
    1bbc:	0f be       	out	0x3f, r0	; 63
    1bbe:	cd bf       	out	0x3d, r28	; 61
    1bc0:	df 91       	pop	r29
    1bc2:	cf 91       	pop	r28
    1bc4:	08 95       	ret

00001bc6 <writeIntegerLength>:
 *			writeIntegerLength(1024,DEC,6);  	// Decimal
 *			writeIntegerLength(044,OCT,4);		// Ocal
 *			writeIntegerLength(0b11010111,BIN,8); // Binary
 */
void writeIntegerLength(int16_t number, uint8_t base, uint8_t length)
{
    1bc6:	ef 92       	push	r14
    1bc8:	ff 92       	push	r15
    1bca:	0f 93       	push	r16
    1bcc:	1f 93       	push	r17
    1bce:	cf 93       	push	r28
    1bd0:	df 93       	push	r29
    1bd2:	cd b7       	in	r28, 0x3d	; 61
    1bd4:	de b7       	in	r29, 0x3e	; 62
    1bd6:	61 97       	sbiw	r28, 0x11	; 17
    1bd8:	0f b6       	in	r0, 0x3f	; 63
    1bda:	f8 94       	cli
    1bdc:	de bf       	out	0x3e, r29	; 62
    1bde:	0f be       	out	0x3f, r0	; 63
    1be0:	cd bf       	out	0x3d, r28	; 61
    1be2:	e4 2e       	mov	r14, r20
	char buffer[17];
	itoa(number, &buffer[0], base);
    1be4:	46 2f       	mov	r20, r22
    1be6:	50 e0       	ldi	r21, 0x00	; 0
    1be8:	8e 01       	movw	r16, r28
    1bea:	0f 5f       	subi	r16, 0xFF	; 255
    1bec:	1f 4f       	sbci	r17, 0xFF	; 255
    1bee:	b8 01       	movw	r22, r16
    1bf0:	0e 94 5b 10 	call	0x20b6	; 0x20b6 <itoa>
	int8_t cnt = length - strlen(buffer);
    1bf4:	f8 01       	movw	r30, r16
    1bf6:	01 90       	ld	r0, Z+
    1bf8:	00 20       	and	r0, r0
    1bfa:	e9 f7       	brne	.-6      	; 0x1bf6 <writeIntegerLength+0x30>
    1bfc:	31 97       	sbiw	r30, 0x01	; 1
    1bfe:	e0 1b       	sub	r30, r16
    1c00:	f1 0b       	sbc	r31, r17
    1c02:	fe 2c       	mov	r15, r14
    1c04:	fe 1a       	sub	r15, r30
	if(cnt > 0) {
    1c06:	1f 14       	cp	r1, r15
    1c08:	54 f4       	brge	.+20     	; 0x1c1e <writeIntegerLength+0x58>
    1c0a:	fa 94       	dec	r15
		for(; cnt > 0; cnt--, writeChar('0'));
    1c0c:	80 e3       	ldi	r24, 0x30	; 48
    1c0e:	0e 94 89 0d 	call	0x1b12	; 0x1b12 <writeChar>
    1c12:	f1 10       	cpse	r15, r1
    1c14:	fa cf       	rjmp	.-12     	; 0x1c0a <writeIntegerLength+0x44>
		writeString(&buffer[0]);
    1c16:	c8 01       	movw	r24, r16
    1c18:	0e 94 8d 0d 	call	0x1b1a	; 0x1b1a <writeString>
    1c1c:	06 c0       	rjmp	.+12     	; 0x1c2a <writeIntegerLength+0x64>
	}
	else 
		writeStringLength(&buffer[0],length,-cnt);
    1c1e:	4f 2d       	mov	r20, r15
    1c20:	41 95       	neg	r20
    1c22:	6e 2d       	mov	r22, r14
    1c24:	c8 01       	movw	r24, r16
    1c26:	0e 94 a8 0d 	call	0x1b50	; 0x1b50 <writeStringLength>
}
    1c2a:	61 96       	adiw	r28, 0x11	; 17
    1c2c:	0f b6       	in	r0, 0x3f	; 63
    1c2e:	f8 94       	cli
    1c30:	de bf       	out	0x3e, r29	; 62
    1c32:	0f be       	out	0x3f, r0	; 63
    1c34:	cd bf       	out	0x3d, r28	; 61
    1c36:	df 91       	pop	r29
    1c38:	cf 91       	pop	r28
    1c3a:	1f 91       	pop	r17
    1c3c:	0f 91       	pop	r16
    1c3e:	ff 90       	pop	r15
    1c40:	ef 90       	pop	r14
    1c42:	08 95       	ret

00001c44 <__vector_13>:
/**
 * UART receive ISR.
 * Handles reception to circular buffer.
 */
ISR(USART_RXC_vect)
{	
    1c44:	1f 92       	push	r1
    1c46:	0f 92       	push	r0
    1c48:	0f b6       	in	r0, 0x3f	; 63
    1c4a:	0f 92       	push	r0
    1c4c:	11 24       	eor	r1, r1
    1c4e:	2f 93       	push	r18
    1c50:	8f 93       	push	r24
    1c52:	9f 93       	push	r25
    1c54:	ef 93       	push	r30
    1c56:	ff 93       	push	r31
	static volatile uint8_t dummy;
	if(((uint8_t)(write_size - read_size)) < UART_RECEIVE_BUFFER_SIZE) {
    1c58:	90 91 96 00 	lds	r25, 0x0096
    1c5c:	80 91 97 00 	lds	r24, 0x0097
    1c60:	29 2f       	mov	r18, r25
    1c62:	28 1b       	sub	r18, r24
    1c64:	20 32       	cpi	r18, 0x20	; 32
    1c66:	a8 f4       	brcc	.+42     	; 0x1c92 <__vector_13+0x4e>
		uart_receive_buffer[write_pos++] = UDR;
    1c68:	e0 91 98 00 	lds	r30, 0x0098
    1c6c:	81 e0       	ldi	r24, 0x01	; 1
    1c6e:	8e 0f       	add	r24, r30
    1c70:	80 93 98 00 	sts	0x0098, r24
    1c74:	f0 e0       	ldi	r31, 0x00	; 0
    1c76:	2c b1       	in	r18, 0x0c	; 12
    1c78:	e8 5f       	subi	r30, 0xF8	; 248
    1c7a:	fe 4f       	sbci	r31, 0xFE	; 254
    1c7c:	20 83       	st	Z, r18
		write_size++;
    1c7e:	9f 5f       	subi	r25, 0xFF	; 255
    1c80:	90 93 96 00 	sts	0x0096, r25
		if(write_pos > UART_RECEIVE_BUFFER_SIZE) 
    1c84:	81 32       	cpi	r24, 0x21	; 33
    1c86:	10 f0       	brcs	.+4      	; 0x1c8c <__vector_13+0x48>
			write_pos = 0;
    1c88:	10 92 98 00 	sts	0x0098, r1
		uart_status = UART_BUFFER_OK;
    1c8c:	10 92 07 01 	sts	0x0107, r1
    1c90:	06 c0       	rjmp	.+12     	; 0x1c9e <__vector_13+0x5a>
	}
	else {	
		dummy = UDR;
    1c92:	8c b1       	in	r24, 0x0c	; 12
    1c94:	80 93 9b 00 	sts	0x009B, r24
		uart_status = UART_BUFFER_OVERFLOW;
    1c98:	81 e0       	ldi	r24, 0x01	; 1
    1c9a:	80 93 07 01 	sts	0x0107, r24
	}
}
    1c9e:	ff 91       	pop	r31
    1ca0:	ef 91       	pop	r30
    1ca2:	9f 91       	pop	r25
    1ca4:	8f 91       	pop	r24
    1ca6:	2f 91       	pop	r18
    1ca8:	0f 90       	pop	r0
    1caa:	0f be       	out	0x3f, r0	; 63
    1cac:	0f 90       	pop	r0
    1cae:	1f 90       	pop	r1
    1cb0:	18 95       	reti

00001cb2 <readChar>:
 * // [...]
 *
 */
char readChar(void)
{
	uart_status = UART_BUFFER_OK;
    1cb2:	10 92 07 01 	sts	0x0107, r1
	if(((uint8_t)(write_size - read_size)) > 0) {
    1cb6:	80 91 97 00 	lds	r24, 0x0097
    1cba:	90 91 96 00 	lds	r25, 0x0096
    1cbe:	98 17       	cp	r25, r24
    1cc0:	a1 f0       	breq	.+40     	; 0x1cea <readChar+0x38>
		read_size++;
    1cc2:	8f 5f       	subi	r24, 0xFF	; 255
    1cc4:	80 93 97 00 	sts	0x0097, r24
		if(read_pos > UART_RECEIVE_BUFFER_SIZE) 
    1cc8:	80 91 99 00 	lds	r24, 0x0099
    1ccc:	81 32       	cpi	r24, 0x21	; 33
    1cce:	10 f0       	brcs	.+4      	; 0x1cd4 <readChar+0x22>
			read_pos = 0;
    1cd0:	10 92 99 00 	sts	0x0099, r1
		return uart_receive_buffer[read_pos++];
    1cd4:	e0 91 99 00 	lds	r30, 0x0099
    1cd8:	81 e0       	ldi	r24, 0x01	; 1
    1cda:	8e 0f       	add	r24, r30
    1cdc:	80 93 99 00 	sts	0x0099, r24
    1ce0:	f0 e0       	ldi	r31, 0x00	; 0
    1ce2:	e8 5f       	subi	r30, 0xF8	; 248
    1ce4:	fe 4f       	sbci	r31, 0xFE	; 254
    1ce6:	80 81       	ld	r24, Z
    1ce8:	08 95       	ret
	}
	return 0;
    1cea:	80 e0       	ldi	r24, 0x00	; 0
}
    1cec:	08 95       	ret

00001cee <readChars>:
 * Just in case that there were fewer chars in the buffer...
 */
uint8_t readChars(char *buf, uint8_t numberOfChars)
{
   uint8_t i = 0;
   uart_status = UART_BUFFER_OK;
    1cee:	10 92 07 01 	sts	0x0107, r1
    1cf2:	28 2f       	mov	r18, r24
   while(((uint8_t)(write_size - read_size))  > 0 && i < numberOfChars) {
    1cf4:	fc 01       	movw	r30, r24
    1cf6:	8e 2f       	mov	r24, r30
    1cf8:	82 1b       	sub	r24, r18
    1cfa:	90 91 97 00 	lds	r25, 0x0097
    1cfe:	30 91 96 00 	lds	r19, 0x0096
    1d02:	39 17       	cp	r19, r25
    1d04:	b9 f0       	breq	.+46     	; 0x1d34 <readChars+0x46>
    1d06:	86 17       	cp	r24, r22
    1d08:	a8 f4       	brcc	.+42     	; 0x1d34 <readChars+0x46>
      read_size++;
    1d0a:	9f 5f       	subi	r25, 0xFF	; 255
    1d0c:	90 93 97 00 	sts	0x0097, r25
      buf[i++] = uart_receive_buffer[read_pos++];
    1d10:	a0 91 99 00 	lds	r26, 0x0099
    1d14:	81 e0       	ldi	r24, 0x01	; 1
    1d16:	8a 0f       	add	r24, r26
    1d18:	80 93 99 00 	sts	0x0099, r24
    1d1c:	b0 e0       	ldi	r27, 0x00	; 0
    1d1e:	a8 5f       	subi	r26, 0xF8	; 248
    1d20:	be 4f       	sbci	r27, 0xFE	; 254
    1d22:	8c 91       	ld	r24, X
    1d24:	81 93       	st	Z+, r24
      if(read_pos > UART_RECEIVE_BUFFER_SIZE)
    1d26:	80 91 99 00 	lds	r24, 0x0099
    1d2a:	81 32       	cpi	r24, 0x21	; 33
    1d2c:	20 f3       	brcs	.-56     	; 0x1cf6 <readChars+0x8>
         read_pos = 0;
    1d2e:	10 92 99 00 	sts	0x0099, r1
    1d32:	e1 cf       	rjmp	.-62     	; 0x1cf6 <readChars+0x8>
   }
   return i;
} 
    1d34:	08 95       	ret

00001d36 <getBufferLength>:
 * Example:
 * s. readChar function above!
 */
uint8_t getBufferLength(void)
{
	return (((uint8_t)(write_size - read_size)));
    1d36:	80 91 96 00 	lds	r24, 0x0096
    1d3a:	90 91 97 00 	lds	r25, 0x0097
}
    1d3e:	89 1b       	sub	r24, r25
    1d40:	08 95       	ret

00001d42 <clearReceptionBuffer>:
 * interrupt for a short period of time. 
 */
void clearReceptionBuffer(void)
{
	static uint8_t dummy;
	UCSRB &= ~(1 << RXCIE); // disable UART RX Interrupt
    1d42:	57 98       	cbi	0x0a, 7	; 10
	dummy = UDR;
    1d44:	8c b1       	in	r24, 0x0c	; 12
    1d46:	80 93 9a 00 	sts	0x009A, r24
	read_pos = 0;
    1d4a:	10 92 99 00 	sts	0x0099, r1
	write_pos = 0; 
    1d4e:	10 92 98 00 	sts	0x0098, r1
	read_size = 0;
    1d52:	10 92 97 00 	sts	0x0097, r1
	write_size = 0;
    1d56:	10 92 96 00 	sts	0x0096, r1
	uart_status = UART_BUFFER_OK;
    1d5a:	10 92 07 01 	sts	0x0107, r1
	UCSRB |= (1 << RXCIE); // enable Interrupt again
    1d5e:	57 9a       	sbi	0x0a, 7	; 10
    1d60:	08 95       	ret

00001d62 <main>:
/*****************************************************************************/
// Main:

int main(void)
{
	initRobotBase(); 
    1d62:	0e 94 44 0d 	call	0x1a88	; 0x1a88 <initRobotBase>

    writeString_P("\n\n             __.---.___\n");
    1d66:	8d e5       	ldi	r24, 0x5D	; 93
    1d68:	91 e0       	ldi	r25, 0x01	; 1
    1d6a:	0e 94 99 0d 	call	0x1b32	; 0x1b32 <writeNStringP>
    writeString_P("         ___/__\\_O_/___\\___\n");
    1d6e:	80 e4       	ldi	r24, 0x40	; 64
    1d70:	91 e0       	ldi	r25, 0x01	; 1
    1d72:	0e 94 99 0d 	call	0x1b32	; 0x1b32 <writeNStringP>
    writeString_P("        /___\\__________/___\\\n");
    1d76:	82 e2       	ldi	r24, 0x22	; 34
    1d78:	91 e0       	ldi	r25, 0x01	; 1
    1d7a:	0e 94 99 0d 	call	0x1b32	; 0x1b32 <writeNStringP>
    writeString_P("        |===|\\________/|===|\n");
    1d7e:	84 e0       	ldi	r24, 0x04	; 4
    1d80:	91 e0       	ldi	r25, 0x01	; 1
    1d82:	0e 94 99 0d 	call	0x1b32	; 0x1b32 <writeNStringP>
    writeString_P("________|===|__________|===|________\n");
    1d86:	8e ed       	ldi	r24, 0xDE	; 222
    1d88:	90 e0       	ldi	r25, 0x00	; 0
    1d8a:	0e 94 99 0d 	call	0x1b32	; 0x1b32 <writeNStringP>
	writeString_P("    Pervasive Computing - Group 8\n");
    1d8e:	8b eb       	ldi	r24, 0xBB	; 187
    1d90:	90 e0       	ldi	r25, 0x00	; 0
    1d92:	0e 94 99 0d 	call	0x1b32	; 0x1b32 <writeNStringP>
	writeString_P("Simultaneous localization and mapping\n");
    1d96:	84 e9       	ldi	r24, 0x94	; 148
    1d98:	90 e0       	ldi	r25, 0x00	; 0
    1d9a:	0e 94 99 0d 	call	0x1b32	; 0x1b32 <writeNStringP>
	writeString_P("    Jan - Felix - Tobias - Julian\n\n");
    1d9e:	80 e7       	ldi	r24, 0x70	; 112
    1da0:	90 e0       	ldi	r25, 0x00	; 0
    1da2:	0e 94 99 0d 	call	0x1b32	; 0x1b32 <writeNStringP>

	setLEDs(0b111111);
    1da6:	8f e3       	ldi	r24, 0x3F	; 63
    1da8:	0e 94 27 04 	call	0x84e	; 0x84e <setLEDs>
	mSleep(2500);
    1dac:	84 ec       	ldi	r24, 0xC4	; 196
    1dae:	99 e0       	ldi	r25, 0x09	; 9
    1db0:	0e 94 8e 09 	call	0x131c	; 0x131c <mSleep>
	setLEDs(0b100100); 
    1db4:	84 e2       	ldi	r24, 0x24	; 36
    1db6:	0e 94 27 04 	call	0x84e	; 0x84e <setLEDs>

	// Set Bumpers state changed event handler:
	BUMPERS_setStateChangedHandler(bumpersStateChanged);
    1dba:	84 ee       	ldi	r24, 0xE4	; 228
    1dbc:	91 e0       	ldi	r25, 0x01	; 1
    1dbe:	0e 94 43 04 	call	0x886	; 0x886 <BUMPERS_setStateChangedHandler>
	
	// Set ACS state changed event handler:
	ACS_setStateChangedHandler(acsStateChanged);
    1dc2:	8a eb       	ldi	r24, 0xBA	; 186
    1dc4:	91 e0       	ldi	r25, 0x01	; 1
    1dc6:	0e 94 2b 06 	call	0xc56	; 0xc56 <ACS_setStateChangedHandler>
	
	powerON(); // Turn on Encoders, Current sensing, ACS and Power LED.
    1dca:	0e 94 a5 07 	call	0xf4a	; 0xf4a <powerON>
	setACSPwrMed(); 
    1dce:	0e 94 9b 07 	call	0xf36	; 0xf36 <setACSPwrMed>
	
	// Main loop
	while(true) 
	{		
		behaviourController();
    1dd2:	0e 94 bc 03 	call	0x778	; 0x778 <behaviourController>
		task_RP6System();
    1dd6:	0e 94 2d 0c 	call	0x185a	; 0x185a <task_RP6System>
    1dda:	fb cf       	rjmp	.-10     	; 0x1dd2 <main+0x70>

00001ddc <__divsf3>:
    1ddc:	0c d0       	rcall	.+24     	; 0x1df6 <__divsf3x>
    1dde:	e6 c0       	rjmp	.+460    	; 0x1fac <__fp_round>
    1de0:	de d0       	rcall	.+444    	; 0x1f9e <__fp_pscB>
    1de2:	40 f0       	brcs	.+16     	; 0x1df4 <__divsf3+0x18>
    1de4:	d5 d0       	rcall	.+426    	; 0x1f90 <__fp_pscA>
    1de6:	30 f0       	brcs	.+12     	; 0x1df4 <__divsf3+0x18>
    1de8:	21 f4       	brne	.+8      	; 0x1df2 <__divsf3+0x16>
    1dea:	5f 3f       	cpi	r21, 0xFF	; 255
    1dec:	19 f0       	breq	.+6      	; 0x1df4 <__divsf3+0x18>
    1dee:	c7 c0       	rjmp	.+398    	; 0x1f7e <__fp_inf>
    1df0:	51 11       	cpse	r21, r1
    1df2:	10 c1       	rjmp	.+544    	; 0x2014 <__fp_szero>
    1df4:	ca c0       	rjmp	.+404    	; 0x1f8a <__fp_nan>

00001df6 <__divsf3x>:
    1df6:	eb d0       	rcall	.+470    	; 0x1fce <__fp_split3>
    1df8:	98 f3       	brcs	.-26     	; 0x1de0 <__divsf3+0x4>

00001dfa <__divsf3_pse>:
    1dfa:	99 23       	and	r25, r25
    1dfc:	c9 f3       	breq	.-14     	; 0x1df0 <__divsf3+0x14>
    1dfe:	55 23       	and	r21, r21
    1e00:	b1 f3       	breq	.-20     	; 0x1dee <__divsf3+0x12>
    1e02:	95 1b       	sub	r25, r21
    1e04:	55 0b       	sbc	r21, r21
    1e06:	bb 27       	eor	r27, r27
    1e08:	aa 27       	eor	r26, r26
    1e0a:	62 17       	cp	r22, r18
    1e0c:	73 07       	cpc	r23, r19
    1e0e:	84 07       	cpc	r24, r20
    1e10:	38 f0       	brcs	.+14     	; 0x1e20 <__divsf3_pse+0x26>
    1e12:	9f 5f       	subi	r25, 0xFF	; 255
    1e14:	5f 4f       	sbci	r21, 0xFF	; 255
    1e16:	22 0f       	add	r18, r18
    1e18:	33 1f       	adc	r19, r19
    1e1a:	44 1f       	adc	r20, r20
    1e1c:	aa 1f       	adc	r26, r26
    1e1e:	a9 f3       	breq	.-22     	; 0x1e0a <__divsf3_pse+0x10>
    1e20:	33 d0       	rcall	.+102    	; 0x1e88 <__divsf3_pse+0x8e>
    1e22:	0e 2e       	mov	r0, r30
    1e24:	3a f0       	brmi	.+14     	; 0x1e34 <__divsf3_pse+0x3a>
    1e26:	e0 e8       	ldi	r30, 0x80	; 128
    1e28:	30 d0       	rcall	.+96     	; 0x1e8a <__divsf3_pse+0x90>
    1e2a:	91 50       	subi	r25, 0x01	; 1
    1e2c:	50 40       	sbci	r21, 0x00	; 0
    1e2e:	e6 95       	lsr	r30
    1e30:	00 1c       	adc	r0, r0
    1e32:	ca f7       	brpl	.-14     	; 0x1e26 <__divsf3_pse+0x2c>
    1e34:	29 d0       	rcall	.+82     	; 0x1e88 <__divsf3_pse+0x8e>
    1e36:	fe 2f       	mov	r31, r30
    1e38:	27 d0       	rcall	.+78     	; 0x1e88 <__divsf3_pse+0x8e>
    1e3a:	66 0f       	add	r22, r22
    1e3c:	77 1f       	adc	r23, r23
    1e3e:	88 1f       	adc	r24, r24
    1e40:	bb 1f       	adc	r27, r27
    1e42:	26 17       	cp	r18, r22
    1e44:	37 07       	cpc	r19, r23
    1e46:	48 07       	cpc	r20, r24
    1e48:	ab 07       	cpc	r26, r27
    1e4a:	b0 e8       	ldi	r27, 0x80	; 128
    1e4c:	09 f0       	breq	.+2      	; 0x1e50 <__divsf3_pse+0x56>
    1e4e:	bb 0b       	sbc	r27, r27
    1e50:	80 2d       	mov	r24, r0
    1e52:	bf 01       	movw	r22, r30
    1e54:	ff 27       	eor	r31, r31
    1e56:	93 58       	subi	r25, 0x83	; 131
    1e58:	5f 4f       	sbci	r21, 0xFF	; 255
    1e5a:	2a f0       	brmi	.+10     	; 0x1e66 <__divsf3_pse+0x6c>
    1e5c:	9e 3f       	cpi	r25, 0xFE	; 254
    1e5e:	51 05       	cpc	r21, r1
    1e60:	68 f0       	brcs	.+26     	; 0x1e7c <__divsf3_pse+0x82>
    1e62:	8d c0       	rjmp	.+282    	; 0x1f7e <__fp_inf>
    1e64:	d7 c0       	rjmp	.+430    	; 0x2014 <__fp_szero>
    1e66:	5f 3f       	cpi	r21, 0xFF	; 255
    1e68:	ec f3       	brlt	.-6      	; 0x1e64 <__divsf3_pse+0x6a>
    1e6a:	98 3e       	cpi	r25, 0xE8	; 232
    1e6c:	dc f3       	brlt	.-10     	; 0x1e64 <__divsf3_pse+0x6a>
    1e6e:	86 95       	lsr	r24
    1e70:	77 95       	ror	r23
    1e72:	67 95       	ror	r22
    1e74:	b7 95       	ror	r27
    1e76:	f7 95       	ror	r31
    1e78:	9f 5f       	subi	r25, 0xFF	; 255
    1e7a:	c9 f7       	brne	.-14     	; 0x1e6e <__divsf3_pse+0x74>
    1e7c:	88 0f       	add	r24, r24
    1e7e:	91 1d       	adc	r25, r1
    1e80:	96 95       	lsr	r25
    1e82:	87 95       	ror	r24
    1e84:	97 f9       	bld	r25, 7
    1e86:	08 95       	ret
    1e88:	e1 e0       	ldi	r30, 0x01	; 1
    1e8a:	66 0f       	add	r22, r22
    1e8c:	77 1f       	adc	r23, r23
    1e8e:	88 1f       	adc	r24, r24
    1e90:	bb 1f       	adc	r27, r27
    1e92:	62 17       	cp	r22, r18
    1e94:	73 07       	cpc	r23, r19
    1e96:	84 07       	cpc	r24, r20
    1e98:	ba 07       	cpc	r27, r26
    1e9a:	20 f0       	brcs	.+8      	; 0x1ea4 <__divsf3_pse+0xaa>
    1e9c:	62 1b       	sub	r22, r18
    1e9e:	73 0b       	sbc	r23, r19
    1ea0:	84 0b       	sbc	r24, r20
    1ea2:	ba 0b       	sbc	r27, r26
    1ea4:	ee 1f       	adc	r30, r30
    1ea6:	88 f7       	brcc	.-30     	; 0x1e8a <__divsf3_pse+0x90>
    1ea8:	e0 95       	com	r30
    1eaa:	08 95       	ret

00001eac <__fixunssfsi>:
    1eac:	98 d0       	rcall	.+304    	; 0x1fde <__fp_splitA>
    1eae:	88 f0       	brcs	.+34     	; 0x1ed2 <__fixunssfsi+0x26>
    1eb0:	9f 57       	subi	r25, 0x7F	; 127
    1eb2:	90 f0       	brcs	.+36     	; 0x1ed8 <__fixunssfsi+0x2c>
    1eb4:	b9 2f       	mov	r27, r25
    1eb6:	99 27       	eor	r25, r25
    1eb8:	b7 51       	subi	r27, 0x17	; 23
    1eba:	a0 f0       	brcs	.+40     	; 0x1ee4 <__fixunssfsi+0x38>
    1ebc:	d1 f0       	breq	.+52     	; 0x1ef2 <__fixunssfsi+0x46>
    1ebe:	66 0f       	add	r22, r22
    1ec0:	77 1f       	adc	r23, r23
    1ec2:	88 1f       	adc	r24, r24
    1ec4:	99 1f       	adc	r25, r25
    1ec6:	1a f0       	brmi	.+6      	; 0x1ece <__fixunssfsi+0x22>
    1ec8:	ba 95       	dec	r27
    1eca:	c9 f7       	brne	.-14     	; 0x1ebe <__fixunssfsi+0x12>
    1ecc:	12 c0       	rjmp	.+36     	; 0x1ef2 <__fixunssfsi+0x46>
    1ece:	b1 30       	cpi	r27, 0x01	; 1
    1ed0:	81 f0       	breq	.+32     	; 0x1ef2 <__fixunssfsi+0x46>
    1ed2:	9f d0       	rcall	.+318    	; 0x2012 <__fp_zero>
    1ed4:	b1 e0       	ldi	r27, 0x01	; 1
    1ed6:	08 95       	ret
    1ed8:	9c c0       	rjmp	.+312    	; 0x2012 <__fp_zero>
    1eda:	67 2f       	mov	r22, r23
    1edc:	78 2f       	mov	r23, r24
    1ede:	88 27       	eor	r24, r24
    1ee0:	b8 5f       	subi	r27, 0xF8	; 248
    1ee2:	39 f0       	breq	.+14     	; 0x1ef2 <__fixunssfsi+0x46>
    1ee4:	b9 3f       	cpi	r27, 0xF9	; 249
    1ee6:	cc f3       	brlt	.-14     	; 0x1eda <__fixunssfsi+0x2e>
    1ee8:	86 95       	lsr	r24
    1eea:	77 95       	ror	r23
    1eec:	67 95       	ror	r22
    1eee:	b3 95       	inc	r27
    1ef0:	d9 f7       	brne	.-10     	; 0x1ee8 <__fixunssfsi+0x3c>
    1ef2:	3e f4       	brtc	.+14     	; 0x1f02 <__fixunssfsi+0x56>
    1ef4:	90 95       	com	r25
    1ef6:	80 95       	com	r24
    1ef8:	70 95       	com	r23
    1efa:	61 95       	neg	r22
    1efc:	7f 4f       	sbci	r23, 0xFF	; 255
    1efe:	8f 4f       	sbci	r24, 0xFF	; 255
    1f00:	9f 4f       	sbci	r25, 0xFF	; 255
    1f02:	08 95       	ret

00001f04 <__floatunsisf>:
    1f04:	e8 94       	clt
    1f06:	09 c0       	rjmp	.+18     	; 0x1f1a <__floatsisf+0x12>

00001f08 <__floatsisf>:
    1f08:	97 fb       	bst	r25, 7
    1f0a:	3e f4       	brtc	.+14     	; 0x1f1a <__floatsisf+0x12>
    1f0c:	90 95       	com	r25
    1f0e:	80 95       	com	r24
    1f10:	70 95       	com	r23
    1f12:	61 95       	neg	r22
    1f14:	7f 4f       	sbci	r23, 0xFF	; 255
    1f16:	8f 4f       	sbci	r24, 0xFF	; 255
    1f18:	9f 4f       	sbci	r25, 0xFF	; 255
    1f1a:	99 23       	and	r25, r25
    1f1c:	a9 f0       	breq	.+42     	; 0x1f48 <__floatsisf+0x40>
    1f1e:	f9 2f       	mov	r31, r25
    1f20:	96 e9       	ldi	r25, 0x96	; 150
    1f22:	bb 27       	eor	r27, r27
    1f24:	93 95       	inc	r25
    1f26:	f6 95       	lsr	r31
    1f28:	87 95       	ror	r24
    1f2a:	77 95       	ror	r23
    1f2c:	67 95       	ror	r22
    1f2e:	b7 95       	ror	r27
    1f30:	f1 11       	cpse	r31, r1
    1f32:	f8 cf       	rjmp	.-16     	; 0x1f24 <__floatsisf+0x1c>
    1f34:	fa f4       	brpl	.+62     	; 0x1f74 <__floatsisf+0x6c>
    1f36:	bb 0f       	add	r27, r27
    1f38:	11 f4       	brne	.+4      	; 0x1f3e <__floatsisf+0x36>
    1f3a:	60 ff       	sbrs	r22, 0
    1f3c:	1b c0       	rjmp	.+54     	; 0x1f74 <__floatsisf+0x6c>
    1f3e:	6f 5f       	subi	r22, 0xFF	; 255
    1f40:	7f 4f       	sbci	r23, 0xFF	; 255
    1f42:	8f 4f       	sbci	r24, 0xFF	; 255
    1f44:	9f 4f       	sbci	r25, 0xFF	; 255
    1f46:	16 c0       	rjmp	.+44     	; 0x1f74 <__floatsisf+0x6c>
    1f48:	88 23       	and	r24, r24
    1f4a:	11 f0       	breq	.+4      	; 0x1f50 <__floatsisf+0x48>
    1f4c:	96 e9       	ldi	r25, 0x96	; 150
    1f4e:	11 c0       	rjmp	.+34     	; 0x1f72 <__floatsisf+0x6a>
    1f50:	77 23       	and	r23, r23
    1f52:	21 f0       	breq	.+8      	; 0x1f5c <__floatsisf+0x54>
    1f54:	9e e8       	ldi	r25, 0x8E	; 142
    1f56:	87 2f       	mov	r24, r23
    1f58:	76 2f       	mov	r23, r22
    1f5a:	05 c0       	rjmp	.+10     	; 0x1f66 <__floatsisf+0x5e>
    1f5c:	66 23       	and	r22, r22
    1f5e:	71 f0       	breq	.+28     	; 0x1f7c <__floatsisf+0x74>
    1f60:	96 e8       	ldi	r25, 0x86	; 134
    1f62:	86 2f       	mov	r24, r22
    1f64:	70 e0       	ldi	r23, 0x00	; 0
    1f66:	60 e0       	ldi	r22, 0x00	; 0
    1f68:	2a f0       	brmi	.+10     	; 0x1f74 <__floatsisf+0x6c>
    1f6a:	9a 95       	dec	r25
    1f6c:	66 0f       	add	r22, r22
    1f6e:	77 1f       	adc	r23, r23
    1f70:	88 1f       	adc	r24, r24
    1f72:	da f7       	brpl	.-10     	; 0x1f6a <__floatsisf+0x62>
    1f74:	88 0f       	add	r24, r24
    1f76:	96 95       	lsr	r25
    1f78:	87 95       	ror	r24
    1f7a:	97 f9       	bld	r25, 7
    1f7c:	08 95       	ret

00001f7e <__fp_inf>:
    1f7e:	97 f9       	bld	r25, 7
    1f80:	9f 67       	ori	r25, 0x7F	; 127
    1f82:	80 e8       	ldi	r24, 0x80	; 128
    1f84:	70 e0       	ldi	r23, 0x00	; 0
    1f86:	60 e0       	ldi	r22, 0x00	; 0
    1f88:	08 95       	ret

00001f8a <__fp_nan>:
    1f8a:	9f ef       	ldi	r25, 0xFF	; 255
    1f8c:	80 ec       	ldi	r24, 0xC0	; 192
    1f8e:	08 95       	ret

00001f90 <__fp_pscA>:
    1f90:	00 24       	eor	r0, r0
    1f92:	0a 94       	dec	r0
    1f94:	16 16       	cp	r1, r22
    1f96:	17 06       	cpc	r1, r23
    1f98:	18 06       	cpc	r1, r24
    1f9a:	09 06       	cpc	r0, r25
    1f9c:	08 95       	ret

00001f9e <__fp_pscB>:
    1f9e:	00 24       	eor	r0, r0
    1fa0:	0a 94       	dec	r0
    1fa2:	12 16       	cp	r1, r18
    1fa4:	13 06       	cpc	r1, r19
    1fa6:	14 06       	cpc	r1, r20
    1fa8:	05 06       	cpc	r0, r21
    1faa:	08 95       	ret

00001fac <__fp_round>:
    1fac:	09 2e       	mov	r0, r25
    1fae:	03 94       	inc	r0
    1fb0:	00 0c       	add	r0, r0
    1fb2:	11 f4       	brne	.+4      	; 0x1fb8 <__fp_round+0xc>
    1fb4:	88 23       	and	r24, r24
    1fb6:	52 f0       	brmi	.+20     	; 0x1fcc <__fp_round+0x20>
    1fb8:	bb 0f       	add	r27, r27
    1fba:	40 f4       	brcc	.+16     	; 0x1fcc <__fp_round+0x20>
    1fbc:	bf 2b       	or	r27, r31
    1fbe:	11 f4       	brne	.+4      	; 0x1fc4 <__fp_round+0x18>
    1fc0:	60 ff       	sbrs	r22, 0
    1fc2:	04 c0       	rjmp	.+8      	; 0x1fcc <__fp_round+0x20>
    1fc4:	6f 5f       	subi	r22, 0xFF	; 255
    1fc6:	7f 4f       	sbci	r23, 0xFF	; 255
    1fc8:	8f 4f       	sbci	r24, 0xFF	; 255
    1fca:	9f 4f       	sbci	r25, 0xFF	; 255
    1fcc:	08 95       	ret

00001fce <__fp_split3>:
    1fce:	57 fd       	sbrc	r21, 7
    1fd0:	90 58       	subi	r25, 0x80	; 128
    1fd2:	44 0f       	add	r20, r20
    1fd4:	55 1f       	adc	r21, r21
    1fd6:	59 f0       	breq	.+22     	; 0x1fee <__fp_splitA+0x10>
    1fd8:	5f 3f       	cpi	r21, 0xFF	; 255
    1fda:	71 f0       	breq	.+28     	; 0x1ff8 <__fp_splitA+0x1a>
    1fdc:	47 95       	ror	r20

00001fde <__fp_splitA>:
    1fde:	88 0f       	add	r24, r24
    1fe0:	97 fb       	bst	r25, 7
    1fe2:	99 1f       	adc	r25, r25
    1fe4:	61 f0       	breq	.+24     	; 0x1ffe <__fp_splitA+0x20>
    1fe6:	9f 3f       	cpi	r25, 0xFF	; 255
    1fe8:	79 f0       	breq	.+30     	; 0x2008 <__fp_splitA+0x2a>
    1fea:	87 95       	ror	r24
    1fec:	08 95       	ret
    1fee:	12 16       	cp	r1, r18
    1ff0:	13 06       	cpc	r1, r19
    1ff2:	14 06       	cpc	r1, r20
    1ff4:	55 1f       	adc	r21, r21
    1ff6:	f2 cf       	rjmp	.-28     	; 0x1fdc <__fp_split3+0xe>
    1ff8:	46 95       	lsr	r20
    1ffa:	f1 df       	rcall	.-30     	; 0x1fde <__fp_splitA>
    1ffc:	08 c0       	rjmp	.+16     	; 0x200e <__fp_splitA+0x30>
    1ffe:	16 16       	cp	r1, r22
    2000:	17 06       	cpc	r1, r23
    2002:	18 06       	cpc	r1, r24
    2004:	99 1f       	adc	r25, r25
    2006:	f1 cf       	rjmp	.-30     	; 0x1fea <__fp_splitA+0xc>
    2008:	86 95       	lsr	r24
    200a:	71 05       	cpc	r23, r1
    200c:	61 05       	cpc	r22, r1
    200e:	08 94       	sec
    2010:	08 95       	ret

00002012 <__fp_zero>:
    2012:	e8 94       	clt

00002014 <__fp_szero>:
    2014:	bb 27       	eor	r27, r27
    2016:	66 27       	eor	r22, r22
    2018:	77 27       	eor	r23, r23
    201a:	cb 01       	movw	r24, r22
    201c:	97 f9       	bld	r25, 7
    201e:	08 95       	ret

00002020 <__umulhisi3>:
    2020:	a2 9f       	mul	r26, r18
    2022:	b0 01       	movw	r22, r0
    2024:	b3 9f       	mul	r27, r19
    2026:	c0 01       	movw	r24, r0
    2028:	a3 9f       	mul	r26, r19
    202a:	70 0d       	add	r23, r0
    202c:	81 1d       	adc	r24, r1
    202e:	11 24       	eor	r1, r1
    2030:	91 1d       	adc	r25, r1
    2032:	b2 9f       	mul	r27, r18
    2034:	70 0d       	add	r23, r0
    2036:	81 1d       	adc	r24, r1
    2038:	11 24       	eor	r1, r1
    203a:	91 1d       	adc	r25, r1
    203c:	08 95       	ret

0000203e <__udivmodhi4>:
    203e:	aa 1b       	sub	r26, r26
    2040:	bb 1b       	sub	r27, r27
    2042:	51 e1       	ldi	r21, 0x11	; 17
    2044:	07 c0       	rjmp	.+14     	; 0x2054 <__udivmodhi4_ep>

00002046 <__udivmodhi4_loop>:
    2046:	aa 1f       	adc	r26, r26
    2048:	bb 1f       	adc	r27, r27
    204a:	a6 17       	cp	r26, r22
    204c:	b7 07       	cpc	r27, r23
    204e:	10 f0       	brcs	.+4      	; 0x2054 <__udivmodhi4_ep>
    2050:	a6 1b       	sub	r26, r22
    2052:	b7 0b       	sbc	r27, r23

00002054 <__udivmodhi4_ep>:
    2054:	88 1f       	adc	r24, r24
    2056:	99 1f       	adc	r25, r25
    2058:	5a 95       	dec	r21
    205a:	a9 f7       	brne	.-22     	; 0x2046 <__udivmodhi4_loop>
    205c:	80 95       	com	r24
    205e:	90 95       	com	r25
    2060:	bc 01       	movw	r22, r24
    2062:	cd 01       	movw	r24, r26
    2064:	08 95       	ret

00002066 <__udivmodsi4>:
    2066:	a1 e2       	ldi	r26, 0x21	; 33
    2068:	1a 2e       	mov	r1, r26
    206a:	aa 1b       	sub	r26, r26
    206c:	bb 1b       	sub	r27, r27
    206e:	fd 01       	movw	r30, r26
    2070:	0d c0       	rjmp	.+26     	; 0x208c <__udivmodsi4_ep>

00002072 <__udivmodsi4_loop>:
    2072:	aa 1f       	adc	r26, r26
    2074:	bb 1f       	adc	r27, r27
    2076:	ee 1f       	adc	r30, r30
    2078:	ff 1f       	adc	r31, r31
    207a:	a2 17       	cp	r26, r18
    207c:	b3 07       	cpc	r27, r19
    207e:	e4 07       	cpc	r30, r20
    2080:	f5 07       	cpc	r31, r21
    2082:	20 f0       	brcs	.+8      	; 0x208c <__udivmodsi4_ep>
    2084:	a2 1b       	sub	r26, r18
    2086:	b3 0b       	sbc	r27, r19
    2088:	e4 0b       	sbc	r30, r20
    208a:	f5 0b       	sbc	r31, r21

0000208c <__udivmodsi4_ep>:
    208c:	66 1f       	adc	r22, r22
    208e:	77 1f       	adc	r23, r23
    2090:	88 1f       	adc	r24, r24
    2092:	99 1f       	adc	r25, r25
    2094:	1a 94       	dec	r1
    2096:	69 f7       	brne	.-38     	; 0x2072 <__udivmodsi4_loop>
    2098:	60 95       	com	r22
    209a:	70 95       	com	r23
    209c:	80 95       	com	r24
    209e:	90 95       	com	r25
    20a0:	9b 01       	movw	r18, r22
    20a2:	ac 01       	movw	r20, r24
    20a4:	bd 01       	movw	r22, r26
    20a6:	cf 01       	movw	r24, r30
    20a8:	08 95       	ret

000020aa <__tablejump2__>:
    20aa:	ee 0f       	add	r30, r30
    20ac:	ff 1f       	adc	r31, r31

000020ae <__tablejump__>:
    20ae:	05 90       	lpm	r0, Z+
    20b0:	f4 91       	lpm	r31, Z
    20b2:	e0 2d       	mov	r30, r0
    20b4:	09 94       	ijmp

000020b6 <itoa>:
    20b6:	fb 01       	movw	r30, r22
    20b8:	9f 01       	movw	r18, r30
    20ba:	e8 94       	clt
    20bc:	42 30       	cpi	r20, 0x02	; 2
    20be:	c4 f0       	brlt	.+48     	; 0x20f0 <itoa+0x3a>
    20c0:	45 32       	cpi	r20, 0x25	; 37
    20c2:	b4 f4       	brge	.+44     	; 0x20f0 <itoa+0x3a>
    20c4:	4a 30       	cpi	r20, 0x0A	; 10
    20c6:	29 f4       	brne	.+10     	; 0x20d2 <itoa+0x1c>
    20c8:	97 fb       	bst	r25, 7
    20ca:	1e f4       	brtc	.+6      	; 0x20d2 <itoa+0x1c>
    20cc:	90 95       	com	r25
    20ce:	81 95       	neg	r24
    20d0:	9f 4f       	sbci	r25, 0xFF	; 255
    20d2:	64 2f       	mov	r22, r20
    20d4:	77 27       	eor	r23, r23
    20d6:	0e 94 1f 10 	call	0x203e	; 0x203e <__udivmodhi4>
    20da:	80 5d       	subi	r24, 0xD0	; 208
    20dc:	8a 33       	cpi	r24, 0x3A	; 58
    20de:	0c f0       	brlt	.+2      	; 0x20e2 <itoa+0x2c>
    20e0:	89 5d       	subi	r24, 0xD9	; 217
    20e2:	81 93       	st	Z+, r24
    20e4:	cb 01       	movw	r24, r22
    20e6:	00 97       	sbiw	r24, 0x00	; 0
    20e8:	a1 f7       	brne	.-24     	; 0x20d2 <itoa+0x1c>
    20ea:	16 f4       	brtc	.+4      	; 0x20f0 <itoa+0x3a>
    20ec:	5d e2       	ldi	r21, 0x2D	; 45
    20ee:	51 93       	st	Z+, r21
    20f0:	10 82       	st	Z, r1
    20f2:	c9 01       	movw	r24, r18
    20f4:	0c 94 7c 10 	jmp	0x20f8	; 0x20f8 <strrev>

000020f8 <strrev>:
    20f8:	dc 01       	movw	r26, r24
    20fa:	fc 01       	movw	r30, r24
    20fc:	67 2f       	mov	r22, r23
    20fe:	71 91       	ld	r23, Z+
    2100:	77 23       	and	r23, r23
    2102:	e1 f7       	brne	.-8      	; 0x20fc <strrev+0x4>
    2104:	32 97       	sbiw	r30, 0x02	; 2
    2106:	04 c0       	rjmp	.+8      	; 0x2110 <strrev+0x18>
    2108:	7c 91       	ld	r23, X
    210a:	6d 93       	st	X+, r22
    210c:	70 83       	st	Z, r23
    210e:	62 91       	ld	r22, -Z
    2110:	ae 17       	cp	r26, r30
    2112:	bf 07       	cpc	r27, r31
    2114:	c8 f3       	brcs	.-14     	; 0x2108 <strrev+0x10>
    2116:	08 95       	ret

00002118 <_exit>:
    2118:	f8 94       	cli

0000211a <__stop_program>:
    211a:	ff cf       	rjmp	.-2      	; 0x211a <__stop_program>
